
i2c_test.elf:     file format elf32-littlenios2
i2c_test.elf
architecture: nios2:r1, flags 0x00000112:
EXEC_P, HAS_SYMS, D_PAGED
start address 0x00040238

Program Header:
    LOAD off    0x00001000 vaddr 0x00040000 paddr 0x00040000 align 2**12
         filesz 0x00000020 memsz 0x00000020 flags r-x
    LOAD off    0x00001020 vaddr 0x00040020 paddr 0x00040020 align 2**12
         filesz 0x000118fc memsz 0x000118fc flags r-x
    LOAD off    0x0001291c vaddr 0x0005191c paddr 0x000534f4 align 2**12
         filesz 0x00001bd8 memsz 0x00001bd8 flags rw-
    LOAD off    0x000000cc vaddr 0x000550cc paddr 0x000550cc align 2**12
         filesz 0x00000000 memsz 0x00000168 flags rw-

Sections:
Idx Name          Size      VMA       LMA       File off  Algn
  0 .entry        00000020  00040000  00040000  00001000  2**5
                  CONTENTS, ALLOC, LOAD, READONLY, CODE
  1 .exceptions   00000218  00040020  00040020  00001020  2**2
                  CONTENTS, ALLOC, LOAD, READONLY, CODE
  2 .text         00010ff0  00040238  00040238  00001238  2**2
                  CONTENTS, ALLOC, LOAD, READONLY, CODE
  3 .rodata       000006f4  00051228  00051228  00012228  2**2
                  CONTENTS, ALLOC, LOAD, READONLY, DATA
  4 .rwdata       00001bd8  0005191c  000534f4  0001291c  2**2
                  CONTENTS, ALLOC, LOAD, DATA, SMALL_DATA
  5 .bss          00000168  000550cc  000550cc  000150cc  2**2
                  ALLOC, SMALL_DATA
  6 .onchip_mem   00000000  00055234  00055234  000144f4  2**0
                  CONTENTS
  7 .comment      0000002d  00000000  00000000  000144f4  2**0
                  CONTENTS, READONLY
  8 .debug_aranges 00001190  00000000  00000000  00014528  2**3
                  CONTENTS, READONLY, DEBUGGING, OCTETS
  9 .debug_info   0002e84f  00000000  00000000  000156b8  2**0
                  CONTENTS, READONLY, DEBUGGING, OCTETS
 10 .debug_abbrev 0000c905  00000000  00000000  00043f07  2**0
                  CONTENTS, READONLY, DEBUGGING, OCTETS
 11 .debug_line   00012201  00000000  00000000  0005080c  2**0
                  CONTENTS, READONLY, DEBUGGING, OCTETS
 12 .debug_frame  00002754  00000000  00000000  00062a10  2**2
                  CONTENTS, READONLY, DEBUGGING, OCTETS
 13 .debug_str    00002a56  00000000  00000000  00065164  2**0
                  CONTENTS, READONLY, DEBUGGING, OCTETS
 14 .debug_alt_sim_info 00000060  00000000  00000000  00067bbc  2**2
                  CONTENTS, READONLY, DEBUGGING, OCTETS
 15 .debug_ranges 00000070  00000000  00000000  00067c20  2**3
                  CONTENTS, READONLY, DEBUGGING, OCTETS
 16 .debug_line_str 000021d9  00000000  00000000  00067c90  2**0
                  CONTENTS, READONLY, DEBUGGING, OCTETS
 17 .debug_loclists 00016281  00000000  00000000  00069e69  2**0
                  CONTENTS, READONLY, DEBUGGING, OCTETS
 18 .debug_rnglists 00001989  00000000  00000000  000800ea  2**0
                  CONTENTS, READONLY, DEBUGGING, OCTETS
 19 .thread_model 00000003  00000000  00000000  000850fa  2**0
                  CONTENTS, READONLY
 20 .cpu          00000003  00000000  00000000  000850fd  2**0
                  CONTENTS, READONLY
 21 .qsys         00000001  00000000  00000000  00085100  2**0
                  CONTENTS, READONLY
 22 .simulation_enabled 00000001  00000000  00000000  00085101  2**0
                  CONTENTS, READONLY
 23 .stderr_dev   0000000b  00000000  00000000  00085102  2**0
                  CONTENTS, READONLY
 24 .stdin_dev    0000000b  00000000  00000000  0008510d  2**0
                  CONTENTS, READONLY
 25 .stdout_dev   0000000b  00000000  00000000  00085118  2**0
                  CONTENTS, READONLY
 26 .sopc_system_name 0000000c  00000000  00000000  00085123  2**0
                  CONTENTS, READONLY
 27 .quartus_project_dir 00000035  00000000  00000000  0008512f  2**0
                  CONTENTS, READONLY
 28 .jdi          00004b4c  00000000  00000000  00085164  2**0
                  CONTENTS, READONLY
 29 .sopcinfo     0004a4e3  00000000  00000000  00089cb0  2**0
                  CONTENTS, READONLY
SYMBOL TABLE:
00040000 l    d  .entry	00000000 .entry
00040020 l    d  .exceptions	00000000 .exceptions
00040238 l    d  .text	00000000 .text
00051228 l    d  .rodata	00000000 .rodata
0005191c l    d  .rwdata	00000000 .rwdata
000550cc l    d  .bss	00000000 .bss
00055234 l    d  .onchip_mem	00000000 .onchip_mem
00000000 l    d  .comment	00000000 .comment
00000000 l    d  .debug_aranges	00000000 .debug_aranges
00000000 l    d  .debug_info	00000000 .debug_info
00000000 l    d  .debug_abbrev	00000000 .debug_abbrev
00000000 l    d  .debug_line	00000000 .debug_line
00000000 l    d  .debug_frame	00000000 .debug_frame
00000000 l    d  .debug_str	00000000 .debug_str
00000000 l    d  .debug_alt_sim_info	00000000 .debug_alt_sim_info
00000000 l    d  .debug_ranges	00000000 .debug_ranges
00000000 l    d  .debug_line_str	00000000 .debug_line_str
00000000 l    d  .debug_loclists	00000000 .debug_loclists
00000000 l    d  .debug_rnglists	00000000 .debug_rnglists
00000000 l    df *ABS*	00000000 crt0.o
00040280 l       .text	00000000 alt_after_alt_main
00000000 l    df *ABS*	00000000 alt_irq_handler.c
00000000 l    df *ABS*	00000000 alt_instruction_exception_entry.c
00000000 l    df *ABS*	00000000 hello_world.c
00040794 l     F .text	00000048 handle_interrupts
000407dc l     F .text	00000064 init_interrupt_pio
00000000 l    df *ABS*	00000000 i2c_avalon_mm_if.c
00000000 l    df *ABS*	00000000 divsf3.c
00000000 l    df *ABS*	00000000 mulsf3.c
00000000 l    df *ABS*	00000000 floatsisf.c
00000000 l    df *ABS*	00000000 floatunsisf.c
00000000 l    df *ABS*	00000000 extendsfdf2.c
00000000 l    df *ABS*	00000000 libgcc2.c
00000000 l    df *ABS*	00000000 libgcc2.c
00000000 l    df *ABS*	00000000 printf.c
00000000 l    df *ABS*	00000000 puts.c
00000000 l    df *ABS*	00000000 strlen.c
00000000 l    df *ABS*	00000000 vfprintf.c
00051414 l     O .rodata	00000010 zeroes.0
00043d0c l     F .text	000000c4 __sbprintf
00051424 l     O .rodata	00000010 blanks.1
00000000 l    df *ABS*	00000000 wsetup.c
00000000 l    df *ABS*	00000000 dtoa.c
00043f1c l     F .text	000001fc quorem
00000000 l    df *ABS*	00000000 fflush.c
00000000 l    df *ABS*	00000000 findfp.c
00045bec l     F .text	00000008 __fp_lock
00045c00 l     F .text	00000008 __fp_unlock
00045c08 l     F .text	00000168 __sinit.part.0
00000000 l    df *ABS*	00000000 mallocr.c
00000000 l    df *ABS*	00000000 fvwrite.c
00000000 l    df *ABS*	00000000 fwalk.c
00000000 l    df *ABS*	00000000 impure.c
0005191c l     O .rwdata	00000424 impure_data
00000000 l    df *ABS*	00000000 localeconv.c
00000000 l    df *ABS*	00000000 makebuf.c
00000000 l    df *ABS*	00000000 mallocr.c
00000000 l    df *ABS*	00000000 memchr.c
00000000 l    df *ABS*	00000000 memcpy.c
00000000 l    df *ABS*	00000000 memmove.c
00000000 l    df *ABS*	00000000 memset.c
00000000 l    df *ABS*	00000000 mprec.c
000514d0 l     O .rodata	0000000c p05.0
00000000 l    df *ABS*	00000000 mallocr.c
00000000 l    df *ABS*	00000000 sbrkr.c
00000000 l    df *ABS*	00000000 stdio.c
00000000 l    df *ABS*	00000000 vfprintf.c
00049048 l     F .text	000000f4 __sprint_r.part.0
000515f4 l     O .rodata	00000010 zeroes.0
0004a3e0 l     F .text	000000c4 __sbprintf
00051604 l     O .rodata	00000010 blanks.1
00000000 l    df *ABS*	00000000 writer.c
00000000 l    df *ABS*	00000000 closer.c
00000000 l    df *ABS*	00000000 assert.c
00000000 l    df *ABS*	00000000 mallocr.c
00000000 l    df *ABS*	00000000 errno.c
00000000 l    df *ABS*	00000000 fclose.c
00000000 l    df *ABS*	00000000 fiprintf.c
00000000 l    df *ABS*	00000000 fputwc.c
00000000 l    df *ABS*	00000000 fstatr.c
00000000 l    df *ABS*	00000000 int_errno.c
00000000 l    df *ABS*	00000000 isattyr.c
00000000 l    df *ABS*	00000000 locale.c
00000000 l    df *ABS*	00000000 lseekr.c
00000000 l    df *ABS*	00000000 mbtowc_r.c
00000000 l    df *ABS*	00000000 readr.c
00000000 l    df *ABS*	00000000 strcmp.c
00000000 l    df *ABS*	00000000 vfiprintfr_1.c
00000000 l    df *ABS*	00000000 wbuf.c
00000000 l    df *ABS*	00000000 wcrtomb.c
00000000 l    df *ABS*	00000000 wctomb_r.c
00000000 l    df *ABS*	00000000 abort.c
00000000 l    df *ABS*	00000000 ctype_.c
00000000 l    df *ABS*	00000000 signal.c
00000000 l    df *ABS*	00000000 signalr.c
00000000 l    df *ABS*	00000000 libgcc2.c
00000000 l    df *ABS*	00000000 libgcc2.c
00000000 l    df *ABS*	00000000 lib2-divmod.c
00000000 l    df *ABS*	00000000 adddf3.c
00000000 l    df *ABS*	00000000 divdf3.c
00000000 l    df *ABS*	00000000 eqdf2.c
00000000 l    df *ABS*	00000000 gedf2.c
00000000 l    df *ABS*	00000000 ledf2.c
00000000 l    df *ABS*	00000000 muldf3.c
00000000 l    df *ABS*	00000000 subdf3.c
00000000 l    df *ABS*	00000000 unorddf2.c
00000000 l    df *ABS*	00000000 fixdfsi.c
00000000 l    df *ABS*	00000000 floatsidf.c
00000000 l    df *ABS*	00000000 floatunsidf.c
00000000 l    df *ABS*	00000000 alt_close.c
0004e84c l     F .text	0000003c alt_get_errno
00000000 l    df *ABS*	00000000 alt_dev.c
0004e958 l     F .text	0000002c alt_dev_null_write
00000000 l    df *ABS*	00000000 alt_errno.c
00000000 l    df *ABS*	00000000 alt_exit.c
00000000 l    df *ABS*	00000000 alt_fstat.c
0004e9c0 l     F .text	0000003c alt_get_errno
00000000 l    df *ABS*	00000000 alt_getpid.c
00000000 l    df *ABS*	00000000 alt_iic.c
00000000 l    df *ABS*	00000000 alt_iic_isr_register.c
00000000 l    df *ABS*	00000000 alt_irq_vars.c
00000000 l    df *ABS*	00000000 alt_isatty.c
0004ed64 l     F .text	0000003c alt_get_errno
00000000 l    df *ABS*	00000000 alt_kill.c
0004ee44 l     F .text	0000003c alt_get_errno
00000000 l    df *ABS*	00000000 alt_load.c
0004ef70 l     F .text	00000068 alt_load_section
00000000 l    df *ABS*	00000000 alt_lseek.c
0004f05c l     F .text	0000003c alt_get_errno
00000000 l    df *ABS*	00000000 alt_main.c
00000000 l    df *ABS*	00000000 alt_malloc_lock.c
00000000 l    df *ABS*	00000000 alt_read.c
0004f230 l     F .text	0000003c alt_get_errno
00000000 l    df *ABS*	00000000 alt_release_fd.c
00000000 l    df *ABS*	00000000 alt_sbrk.c
000534e8 l     O .rwdata	00000004 heap_end
00000000 l    df *ABS*	00000000 alt_usleep.c
00000000 l    df *ABS*	00000000 alt_write.c
0004f4a8 l     F .text	0000003c alt_get_errno
00000000 l    df *ABS*	00000000 alt_sys_init.c
0004f5dc l     F .text	00000034 alt_dev_reg
0005245c l     O .rwdata	00001060 jtag_uart_0
00000000 l    df *ABS*	00000000 altera_avalon_jtag_uart_fd.c
00000000 l    df *ABS*	00000000 altera_avalon_jtag_uart_init.c
0004f8d0 l     F .text	00000214 altera_avalon_jtag_uart_irq
0004fae4 l     F .text	000000a8 altera_avalon_jtag_uart_timeout
00000000 l    df *ABS*	00000000 altera_avalon_jtag_uart_ioctl.c
00000000 l    df *ABS*	00000000 altera_avalon_jtag_uart_read.c
00000000 l    df *ABS*	00000000 altera_avalon_jtag_uart_write.c
00000000 l    df *ABS*	00000000 altera_avalon_timer_sc.c
00050130 l     F .text	0000007c alt_avalon_timer_sc_irq
00000000 l    df *ABS*	00000000 alt_alarm_start.c
00000000 l    df *ABS*	00000000 alt_busy_sleep.c
00000000 l    df *ABS*	00000000 alt_dcache_flush_all.c
00000000 l    df *ABS*	00000000 alt_dev_llist_insert.c
00050534 l     F .text	0000003c alt_get_errno
00000000 l    df *ABS*	00000000 alt_do_ctors.c
00000000 l    df *ABS*	00000000 alt_do_dtors.c
00000000 l    df *ABS*	00000000 alt_icache_flush_all.c
00000000 l    df *ABS*	00000000 alt_io_redirect.c
00050788 l     F .text	000000b0 alt_open_fd
00000000 l    df *ABS*	00000000 alt_open.c
000508b4 l     F .text	0000003c alt_get_errno
000508f0 l     F .text	000000b8 alt_file_locked
00000000 l    df *ABS*	00000000 alt_tick.c
00000000 l    df *ABS*	00000000 altera_nios2_gen2_irq.c
00000000 l    df *ABS*	00000000 alt_find_dev.c
00000000 l    df *ABS*	00000000 alt_find_file.c
00000000 l    df *ABS*	00000000 alt_get_fd.c
00000000 l    df *ABS*	00000000 alt_icache_flush.c
00000000 l    df *ABS*	00000000 atexit.c
00000000 l    df *ABS*	00000000 exit.c
00000000 l    df *ABS*	00000000 memcmp.c
00000000 l    df *ABS*	00000000 __atexit.c
00000000 l    df *ABS*	00000000 __call_atexit.c
000550fc g     O .bss	00000004 alt_instruction_exception_handler
00048770 g     F .text	00000070 _mprec_log10
0004885c g     F .text	00000060 __any_on
0004aae8 g     F .text	00000058 _isatty_r
000514dc g     O .rodata	00000028 __mprec_tinytens
0004f16c g     F .text	0000007c alt_main
000417d0 g     F .text	000000d0 _puts_r
00055134 g     O .bss	00000100 alt_irq
0004ac34 g     F .text	00000064 _lseek_r
000534f4 g       *ABS*	00000000 __flash_rwdata_start
0004d334 g     F .text	00000094 .hidden __eqdf2
00055234 g       *ABS*	00000000 __alt_heap_start
0004b570 g     F .text	00000060 _kill_r
00041798 g     F .text	00000038 printf
0004af68 g     F .text	0000006c _wcrtomb_r
0004b10c g     F .text	00000090 _signal_r
00048fe4 g     F .text	0000005c __sseek
00045f20 g     F .text	00000010 __sinit
0004ae08 g     F .text	00000148 __swbuf_r
0004ab40 g     F .text	00000074 _setlocale_r
00045d70 g     F .text	00000068 __sfmoreglue
0004f20c g     F .text	00000024 __malloc_unlock
00040a68 g     F .text	00000180 read_from_i2c_device
00040be8 g     F .text	00000418 .hidden __divsf3
00040990 g     F .text	00000040 check_mm_if_busy
00047548 g     F .text	00000128 memmove
00045f0c g     F .text	00000014 _cleanup
00047768 g     F .text	000000a4 _Balloc
0004d3c8 g     F .text	000000fc .hidden __gtdf2
00050ccc g     F .text	00000024 altera_nios2_gen2_irq_init
0004a71c g     F .text	0000000c __errno
00040000 g     F .entry	0000001c __reset
00046978 g     F .text	00000008 __localeconv_l
000550d4 g     O .bss	00000004 edge_capture
00040020 g       *ABS*	00000000 __flash_exceptions_start
0004aa88 g     F .text	00000060 _fstat_r
000550e4 g     O .bss	00000004 errno
00048f5c g     F .text	00000008 __seofread
000550f4 g     O .bss	00000004 alt_argv
0005b4bc g       *ABS*	00000000 _gp
0004f478 g     F .text	00000030 usleep
0004eaac g     F .text	00000020 getpid
000522dc g     O .rwdata	00000180 alt_fd_list
00050cf0 g     F .text	00000090 alt_find_dev
00047448 g     F .text	00000100 memcpy
00045bf4 g     F .text	0000000c _cleanup_r
0004e704 g     F .text	000000b8 .hidden __floatsidf
00050838 g     F .text	0000007c alt_io_redirect
0004d4c4 g     F .text	000000f8 .hidden __ltdf2
00051228 g       *ABS*	00000000 __DTOR_END__
000418a0 g     F .text	00000010 puts
00050714 g     F .text	00000074 alt_exception_cause_generated_bad_addr
000486c8 g     F .text	000000a8 __ratio
0004a3c4 g     F .text	0000001c __vfiprintf_internal
0004fce8 g     F .text	00000220 altera_avalon_jtag_uart_read
00041768 g     F .text	00000030 _printf_r
0004c128 g     F .text	00000064 .hidden __udivsi3
0004eda0 g     F .text	000000a4 isatty
0004b19c g     F .text	000000b0 _raise_r
0004a560 g     F .text	00000064 __assert_func
0005152c g     O .rodata	000000c8 __mprec_tens
00050f28 g     F .text	00000090 alt_icache_flush
000550e0 g     O .bss	00000004 __malloc_top_pad
0004b5d0 g     F .text	00000004 _getpid_r
00046980 g     F .text	0000000c _localeconv_r
00047bbc g     F .text	000000b0 __i2b
00046394 g     F .text	000004a4 __sfvwrite_r
0004b24c g     F .text	000000bc __sigtramp_r
00048eb0 g     F .text	00000058 _sbrk_r
0004ace8 g     F .text	00000064 _read_r
000534dc g     O .rwdata	00000004 alt_max_fd
0004a728 g     F .text	000000f8 _fclose_r
0004041c g     F .text	00000048 read_device_id
00045b68 g     F .text	00000084 fflush
000550dc g     O .bss	00000004 __malloc_max_sbrked_mem
0004161c g     F .text	000000fc .hidden __extendsfdf2
0004c1e8 g     F .text	00000904 .hidden __adddf3
00048470 g     F .text	00000100 __b2d
0004bb24 g     F .text	00000510 .hidden __umoddi3
0004f098 g     F .text	000000d4 lseek
000534bc g     O .rwdata	00000004 _global_impure_ptr
000488bc g     F .text	000005f4 _realloc_r
00055234 g       *ABS*	00000000 __bss_end
0004ec7c g     F .text	000000e8 alt_iic_isr_register
00050ba0 g     F .text	0000012c alt_tick
0004b5d4 g     F .text	00000550 .hidden __udivdi3
0004a9ec g     F .text	00000024 _fputwc_r
00051504 g     O .rodata	00000028 __mprec_bigtens
00047960 g     F .text	00000138 __s2b
0004b098 g     F .text	00000018 abort
0004e7bc g     F .text	00000090 .hidden __floatunsidf
00048188 g     F .text	00000058 __mcmp
00045f40 g     F .text	00000014 __fp_lock_all
0004ec30 g     F .text	0000004c alt_ic_irq_enabled
00050afc g     F .text	000000a4 alt_alarm_stop
000550ec g     O .bss	00000004 alt_irq_active
00040000 g       *ABS*	00000000 __alt_mem_onchip_mem
000400fc g     F .exceptions	000000c8 alt_irq_handler
000522b4 g     O .rwdata	00000028 alt_dev_null
000504e8 g     F .text	0000004c alt_dcache_flush_all
00047a98 g     F .text	00000074 __hi0bits
0004e684 g     F .text	00000080 .hidden __fixdfsi
000534f4 g       *ABS*	00000000 __ram_rwdata_end
000534d4 g     O .rwdata	00000008 alt_dev_list
000409d0 g     F .text	00000098 write_to_i2c_device
0004f4e4 g     F .text	000000f8 write
0005191c g       *ABS*	00000000 __ram_rodata_end
0004e9fc g     F .text	000000b0 fstat
0004ee80 g     F .text	000000f0 kill
0004d4c4 g     F .text	000000f8 .hidden __ledf2
00047ec0 g     F .text	00000140 __pow5mult
00049154 g     F .text	00001270 ___vfiprintf_internal_r
0004c18c g     F .text	0000005c .hidden __umodsi3
00055234 g       *ABS*	00000000 end
0004f810 g     F .text	000000c0 altera_avalon_jtag_uart_init
000401c4 g     F .exceptions	00000074 alt_instruction_exception_entry
00051228 g       *ABS*	00000000 __CTOR_LIST__
00065800 g       *ABS*	00000000 __alt_stack_pointer
000501ac g     F .text	00000084 alt_avalon_timer_sc_init
00041718 g     F .text	00000050 .hidden __clzsi2
0004ff08 g     F .text	00000228 altera_avalon_jtag_uart_write
00045f30 g     F .text	00000004 __sfp_lock_acquire
00047378 g     F .text	000000d0 memchr
00041948 g     F .text	000023a8 ___vfprintf_internal_r
0004608c g     F .text	00000308 _free_r
00051768 g     O .rodata	00000180 _ctype_b
0004abb4 g     F .text	0000000c __locale_mb_cur_max
00051108 g     F .text	00000120 __call_exitprocs
000534c4 g     O .rwdata	00000004 __malloc_sbrk_base
00040238 g     F .text	0000004c _start
00055100 g     O .bss	00000004 _alt_tick_rate
00048000 g     F .text	00000188 __lshift
00055104 g     O .bss	00000008 _alt_nticks
0004b3bc g     F .text	00000098 signal
0004f26c g     F .text	000000fc read
0004f64c g     F .text	00000060 alt_sys_init
000413e8 g     F .text	00000128 .hidden __floatsisf
00051078 g     F .text	00000090 __register_exitproc
00047c6c g     F .text	00000254 __multiply
0004fb8c g     F .text	00000068 altera_avalon_jtag_uart_close
0005191c g       *ABS*	00000000 __ram_rwdata_start
00051228 g       *ABS*	00000000 __ram_rodata_start
0005510c g     O .bss	00000028 __malloc_current_mallinfo
00048570 g     F .text	00000158 __d2b
00040284 g     F .text	00000198 config_device
0004f6ac g     F .text	00000060 altera_avalon_jtag_uart_read_fd
00050e88 g     F .text	000000a0 alt_get_fd
00050390 g     F .text	00000158 alt_busy_sleep
0004a508 g     F .text	00000058 _close_r
00051000 g     F .text	00000078 memcmp
0004f76c g     F .text	00000050 altera_avalon_jtag_uart_close_fd
00055234 g       *ABS*	00000000 __alt_stack_base
0004f7bc g     F .text	00000054 altera_avalon_jtag_uart_ioctl_fd
00043dd0 g     F .text	0000014c __swsetup_r
0004caec g     F .text	00000848 .hidden __divdf3
00045dd8 g     F .text	00000134 __sfp
000487e0 g     F .text	0000007c __copybits
00051d40 g     O .rwdata	00000408 __malloc_av_
00045f3c g     F .text	00000004 __sinit_lock_release
0004d5bc g     F .text	000006d8 .hidden __muldf3
00048f08 g     F .text	00000054 __sread
00050d80 g     F .text	00000108 alt_find_file
00050570 g     F .text	000000a8 alt_dev_llist_insert
0004f1e8 g     F .text	00000024 __malloc_lock
0004f3c0 g     F .text	000000b8 sbrk
00045b08 g     F .text	00000060 _fflush_r
0004a5d8 g     F .text	00000144 _calloc_r
000550cc g       *ABS*	00000000 __bss_start
00047670 g     F .text	000000f8 memset
00040840 g     F .text	00000150 main
000550f8 g     O .bss	00000004 alt_envp
000550d8 g     O .bss	00000004 __malloc_max_total_mem
0004f70c g     F .text	00000060 altera_avalon_jtag_uart_write_fd
0004af50 g     F .text	00000018 __swbuf
00049040 g     F .text	00000008 __sclose
00065800 g       *ABS*	00000000 __alt_heap_limit
0004a820 g     F .text	00000010 fclose
00044118 g     F .text	000017e8 _dtoa_r
00046bc4 g     F .text	000007b4 _malloc_r
0004b068 g     F .text	00000030 __ascii_wctomb
000404c0 g     F .text	00000068 read_adxl345_reg
000534e0 g     O .rwdata	00000004 alt_errno
0004a830 g     F .text	00000020 _fiprintf_r
0004b454 g     F .text	00000060 _init_signal
00046838 g     F .text	00000098 _fwalk
0004ac98 g     F .text	0000000c _mbtowc_r
0004c034 g     F .text	00000080 .hidden __divsi3
00045f68 g     F .text	00000124 _malloc_trim_r
00051228 g       *ABS*	00000000 __CTOR_END__
00041000 g     F .text	000003e8 .hidden __mulsf3
0004ad4c g     F .text	000000b8 strcmp
00051228 g       *ABS*	00000000 __flash_rodata_start
00051228 g       *ABS*	00000000 __DTOR_LIST__
0004d334 g     F .text	00000094 .hidden __nedf2
0004f610 g     F .text	0000003c alt_irq_init
0004f368 g     F .text	00000058 alt_release_fd
000512cc g     O .rodata	00000100 .hidden __clz_tab
000550e8 g     O .bss	00000004 _PathLocale
00050fb8 g     F .text	00000014 atexit
0004a4a4 g     F .text	00000064 _write_r
0004abc0 g     F .text	00000074 setlocale
000534c0 g     O .rwdata	00000004 _impure_ptr
000550f0 g     O .bss	00000004 alt_argc
00045900 g     F .text	00000208 __sflush_r
0005067c g     F .text	00000064 _do_dtors
00040020 g       .exceptions	00000000 alt_irq_entry
0004aca4 g     F .text	00000044 __ascii_mbtowc
00048410 g     F .text	00000060 __ulp
00045f54 g     F .text	00000014 __fp_unlock_all
000534cc g     O .rwdata	00000008 alt_fs_list
00040528 g     F .text	0000026c read_acceleration_data
00040020 g       *ABS*	00000000 __ram_exceptions_start
0004698c g     F .text	0000000c localeconv
00046b38 g     F .text	0000008c __swhatbuf_r
0004eacc g     F .text	00000050 alt_ic_isr_register
000534f4 g       *ABS*	00000000 _edata
00055234 g       *ABS*	00000000 _end
0004a888 g     F .text	00000164 __fputwc
00040238 g       *ABS*	00000000 __ram_exceptions_end
000550cc g     O .bss	00000004 accel_range
0004fbf4 g     F .text	000000f4 altera_avalon_jtag_uart_ioctl
000550d0 g     O .bss	00000004 _range_accel
0004eba4 g     F .text	0000008c alt_ic_irq_disable
00048f64 g     F .text	00000080 __swrite
000534c8 g     O .rwdata	00000004 __malloc_trim_threshold
00050fcc g     F .text	00000034 exit
0004a850 g     F .text	00000038 fiprintf
0004ae04 g     F .text	00000004 _vfiprintf_r
000468d0 g     F .text	000000a8 _fwalk_reent
00041510 g     F .text	0000010c .hidden __floatunsisf
000481e0 g     F .text	00000230 __mdiff
0004c0b4 g     F .text	00000074 .hidden __modsi3
00065800 g       *ABS*	00000000 __alt_data_end
00040020 g     F .exceptions	00000000 alt_exception
00045f34 g     F .text	00000004 __sfp_lock_release
00051664 g     O .rodata	00000101 _ctype_
0004e630 g     F .text	00000054 .hidden __unorddf2
0004e984 g     F .text	0000003c _exit
00050230 g     F .text	00000160 alt_alarm_start
00046998 g     F .text	000001a0 __smakebuf_r
000418b0 g     F .text	00000098 strlen
00040464 g     F .text	0000005c read_irq_reg
0004b0b0 g     F .text	0000005c _init_signal_r
000509a8 g     F .text	00000154 open
0004d3c8 g     F .text	000000fc .hidden __gedf2
0004a5c4 g     F .text	00000014 __assert
0004913c g     F .text	00000018 __sprint_r
000506e0 g     F .text	00000034 alt_icache_flush_all
000534e4 g     O .rwdata	00000004 alt_priority_mask
0004eb1c g     F .text	00000088 alt_ic_irq_enable
00043cf0 g     F .text	0000001c __vfprintf_internal
0004b05c g     F .text	0000000c _wctomb_r
0004dc94 g     F .text	0000099c .hidden __subdf3
00047b0c g     F .text	000000b0 __lo0bits
000534ec g     O .rwdata	00000008 alt_alarm_list
00050618 g     F .text	00000064 _do_ctors
0004b4b4 g     F .text	000000bc __sigtramp
0004afd4 g     F .text	00000088 wcrtomb
0004e888 g     F .text	000000d0 close
00052148 g     O .rwdata	0000016c __global_locale
0004efd8 g     F .text	00000084 alt_load
0004aa10 g     F .text	00000078 fputwc
0004b308 g     F .text	000000b4 raise
00045f38 g     F .text	00000004 __sinit_lock_acquire
00047830 g     F .text	00000130 __multadd
0004780c g     F .text	00000024 _Bfree



Disassembly of section .entry:

00040000 <__reset>:
#if NIOS2_ICACHE_SIZE > 0 && defined(ALT_ALLOW_CODE_AT_RESET) && (!defined(ALT_SIM_OPTIMIZE) || defined(NIOS2_ECC_PRESENT))
    /* Assume the instruction cache size is always a power of two. */
#if NIOS2_ICACHE_SIZE > 0x8000
    movhi r2, %hi(NIOS2_ICACHE_SIZE)
#else
    movui r2, NIOS2_ICACHE_SIZE
   40000:	00840014 	movui	r2,4096
#endif

0:
    initi r2
   40004:	1001483a 	initi	r2
    addi r2, r2, -NIOS2_ICACHE_LINE_SIZE
   40008:	10bff804 	addi	r2,r2,-32
    bgt r2, zero, 0b
   4000c:	00bffd16 	blt	zero,r2,40004 <__reset+0x4>
 * Jump to the _start entry point in the .text section if reset code
 * is allowed or if optimizing for RTL simulation.
 */
#if defined(ALT_ALLOW_CODE_AT_RESET) || defined(ALT_SIM_OPTIMIZE)
    /* Jump to the _start entry point in the .text section. */
    movhi r1, %hi(_start)
   40010:	00400134 	movhi	at,4
    ori r1, r1, %lo(_start)
   40014:	08408e14 	ori	at,at,568
    jmp r1
   40018:	0800683a 	jmp	at
   4001c:	00000000 	call	0 <__reset-0x40000>

Disassembly of section .exceptions:

00040020 <alt_exception>:

#else /* ALT_EXCEPTION_STACK disabled */
        /* 
         * Reserve space on normal stack for registers about to be pushed.
         */
        addi  sp, sp, -76
   40020:	deffed04 	addi	sp,sp,-76
         * documentation for details).
         *
         * Leave a gap in the stack frame at 4(sp) for the muldiv handler to
         * store zero into.
         */
        stw   ra,  0(sp)
   40024:	dfc00015 	stw	ra,0(sp)
        stw   r1,   8(sp)
   40028:	d8400215 	stw	at,8(sp)
        stw   r2,  12(sp)
   4002c:	d8800315 	stw	r2,12(sp)
        stw   r3,  16(sp)
   40030:	d8c00415 	stw	r3,16(sp)
        stw   r4,  20(sp)
   40034:	d9000515 	stw	r4,20(sp)
        stw   r5,  24(sp)
   40038:	d9400615 	stw	r5,24(sp)
        stw   r6,  28(sp)
   4003c:	d9800715 	stw	r6,28(sp)
        stw   r7,  32(sp)
   40040:	d9c00815 	stw	r7,32(sp)
        rdctl r5, estatus   /* Read early to avoid usage stall */
   40044:	000b307a 	rdctl	r5,estatus
        stw   r8,  36(sp)
   40048:	da000915 	stw	r8,36(sp)
        stw   r9,  40(sp)
   4004c:	da400a15 	stw	r9,40(sp)
        stw   r10, 44(sp)
   40050:	da800b15 	stw	r10,44(sp)
        stw   r11, 48(sp)
   40054:	dac00c15 	stw	r11,48(sp)
        stw   r12, 52(sp)
   40058:	db000d15 	stw	r12,52(sp)
        stw   r13, 56(sp)
   4005c:	db400e15 	stw	r13,56(sp)
        stw   r14, 60(sp)
   40060:	db800f15 	stw	r14,60(sp)
        stw   r15, 64(sp)
   40064:	dbc01015 	stw	r15,64(sp)
        /*
         * ea-4 contains the address of the instruction being executed
         * when the exception occured. For interrupt exceptions, we will
         * will be re-issue the isntruction. Store it in 72(sp)
         */
        stw   r5,  68(sp)  /* estatus */
   40068:	d9401115 	stw	r5,68(sp)
        addi  r15, ea, -4  /* instruction that caused exception */
   4006c:	ebffff04 	addi	r15,ea,-4
        stw   r15,  72(sp)
   40070:	dbc01215 	stw	r15,72(sp)
#else
        /*
         * Test to see if the exception was a software exception or caused 
         * by an external interrupt, and vector accordingly.
         */
        rdctl r4, ipending
   40074:	0009313a 	rdctl	r4,ipending
        andi  r2, r5, 1
   40078:	2880004c 	andi	r2,r5,1
        beq   r2, zero, .Lnot_irq
   4007c:	10000326 	beq	r2,zero,4008c <alt_exception+0x6c>
        beq   r4, zero, .Lnot_irq
   40080:	20000226 	beq	r4,zero,4008c <alt_exception+0x6c>
        /*
         * Now that all necessary registers have been preserved, call 
         * alt_irq_handler() to process the interrupts.
         */

        call alt_irq_handler
   40084:	00400fc0 	call	400fc <alt_irq_handler>

        .section .exceptions.irqreturn, "xa"

        br    .Lexception_exit
   40088:	00000706 	br	400a8 <alt_exception+0x88>
         * upon completion, so we write ea (address of instruction *after*
         * the one where the exception occured) into 72(sp). The actual
         * instruction that caused the exception is written in r2, which these
         * handlers will utilize.
         */
        stw ea, 72(sp) /* EA is PC+4 so will skip over instruction causing exception */
   4008c:	df401215 	stw	ea,72(sp)
.Lunknown_16bit:
        addi.n r4, r4, 2 /* Need PC+2 to skip over instruction causing exception */
        stw r4, 72(sp)

#else /* CDX is not Enabled and all instructions are 32bits */
        ldw r2, -4(ea) /* Instruction value that caused exception */
   40090:	e8bfff17 	ldw	r2,-4(ea)
   40094:	e93fff04 	addi	r4,ea,-4
   40098:	00401c40 	call	401c4 <alt_instruction_exception_entry>
   4009c:	1000021e 	bne	r2,zero,400a8 <alt_exception+0x88>
   400a0:	ebffff04 	addi	r15,ea,-4
   400a4:	dbc01215 	stw	r15,72(sp)
        /* 
         * Restore the saved registers, so that all general purpose registers 
         * have been restored to their state at the time the interrupt occured.
         */

        ldw   r5,  68(sp)
   400a8:	d9401117 	ldw	r5,68(sp)
        ldw   ea,  72(sp)  /* This becomes the PC once eret is executed */
   400ac:	df401217 	ldw	ea,72(sp)
        ldw   ra,   0(sp)
   400b0:	dfc00017 	ldw	ra,0(sp)

        wrctl estatus, r5
   400b4:	2801707a 	wrctl	estatus,r5

        ldw   r1,   8(sp)
   400b8:	d8400217 	ldw	at,8(sp)
        ldw   r2,  12(sp)
   400bc:	d8800317 	ldw	r2,12(sp)
        ldw   r3,  16(sp)
   400c0:	d8c00417 	ldw	r3,16(sp)
        ldw   r4,  20(sp)
   400c4:	d9000517 	ldw	r4,20(sp)
        ldw   r5,  24(sp)
   400c8:	d9400617 	ldw	r5,24(sp)
        ldw   r6,  28(sp)
   400cc:	d9800717 	ldw	r6,28(sp)
        ldw   r7,  32(sp)
   400d0:	d9c00817 	ldw	r7,32(sp)

#if defined(ALT_EXCEPTION_STACK) && defined(ALT_STACK_CHECK)
        ldw   et, %gprel(alt_exception_old_stack_limit)(gp)
#endif

        ldw   r8,  36(sp)
   400d4:	da000917 	ldw	r8,36(sp)
        ldw   r9,  40(sp)
   400d8:	da400a17 	ldw	r9,40(sp)
        ldw   r10, 44(sp)
   400dc:	da800b17 	ldw	r10,44(sp)
        ldw   r11, 48(sp)
   400e0:	dac00c17 	ldw	r11,48(sp)
        ldw   r12, 52(sp)
   400e4:	db000d17 	ldw	r12,52(sp)
        ldw   r13, 56(sp)
   400e8:	db400e17 	ldw	r13,56(sp)
        ldw   r14, 60(sp)
   400ec:	db800f17 	ldw	r14,60(sp)
        ldw   r15, 64(sp)
   400f0:	dbc01017 	ldw	r15,64(sp)
        stw   et, %gprel(alt_stack_limit_value)(gp)
        stw   zero, %gprel(alt_exception_old_stack_limit)(gp)
#endif /* ALT_STACK_CHECK */
        ldw   sp,  76(sp)
#else /* ALT_EXCEPTION_STACK disabled */
        addi  sp, sp, 76
   400f4:	dec01304 	addi	sp,sp,76

        /*
         * Return to the interrupted instruction.
         */

        eret
   400f8:	ef80083a 	eret

000400fc <alt_irq_handler>:
 * instruction is present if the macro ALT_CI_INTERRUPT_VECTOR defined.
 */

void alt_irq_handler (void) __attribute__ ((section (".exceptions")));
void alt_irq_handler (void)
{
   400fc:	defff904 	addi	sp,sp,-28
   40100:	dfc00615 	stw	ra,24(sp)
   40104:	df000515 	stw	fp,20(sp)
   40108:	df000504 	addi	fp,sp,20
  
  /*
   * Notify the operating system that we are at interrupt level.
   */ 
  
  ALT_OS_INT_ENTER();
   4010c:	0001883a 	nop
#ifndef NIOS2_EIC_PRESENT
static ALT_INLINE alt_u32 ALT_ALWAYS_INLINE alt_irq_pending (void)
{
  alt_u32 active;

  NIOS2_READ_IPENDING (active);
   40110:	0005313a 	rdctl	r2,ipending
   40114:	e0bffc15 	stw	r2,-16(fp)

  return active;
   40118:	e0bffc17 	ldw	r2,-16(fp)
   * Consider the case where the high priority interupt is asserted during
   * the interrupt entry sequence for a lower priority interrupt to see why
   * this is the case.
   */

  active = alt_irq_pending ();
   4011c:	e0bfff15 	stw	r2,-4(fp)

  do
  {
    i = 0;
   40120:	e03ffd15 	stw	zero,-12(fp)
    mask = 1;
   40124:	00800044 	movi	r2,1
   40128:	e0bffe15 	stw	r2,-8(fp)
     * called to clear the interrupt condition.
     */

    do
    {
      if (active & mask)
   4012c:	e0ffff17 	ldw	r3,-4(fp)
   40130:	e0bffe17 	ldw	r2,-8(fp)
   40134:	1884703a 	and	r2,r3,r2
   40138:	10001126 	beq	r2,zero,40180 <alt_irq_handler+0x84>
      { 
#ifdef ALT_ENHANCED_INTERRUPT_API_PRESENT
        alt_irq[i].handler(alt_irq[i].context); 
   4013c:	e0bffd17 	ldw	r2,-12(fp)
   40140:	100690fa 	slli	r3,r2,3
   40144:	00800174 	movhi	r2,5
   40148:	1885883a 	add	r2,r3,r2
   4014c:	10d44d17 	ldw	r3,20788(r2)
   40150:	e0bffd17 	ldw	r2,-12(fp)
   40154:	100890fa 	slli	r4,r2,3
   40158:	00800174 	movhi	r2,5
   4015c:	2085883a 	add	r2,r4,r2
   40160:	10944e17 	ldw	r2,20792(r2)
   40164:	1009883a 	mov	r4,r2
   40168:	183ee83a 	callr	r3
#else
        alt_irq[i].handler(alt_irq[i].context, i); 
#endif
        break;
   4016c:	0001883a 	nop
  NIOS2_READ_IPENDING (active);
   40170:	0005313a 	rdctl	r2,ipending
   40174:	e0bffb15 	stw	r2,-20(fp)
  return active;
   40178:	e0bffb17 	ldw	r2,-20(fp)
   4017c:	00000706 	br	4019c <alt_irq_handler+0xa0>
      }
      mask <<= 1;
   40180:	e0bffe17 	ldw	r2,-8(fp)
   40184:	1085883a 	add	r2,r2,r2
   40188:	e0bffe15 	stw	r2,-8(fp)
      i++;
   4018c:	e0bffd17 	ldw	r2,-12(fp)
   40190:	10800044 	addi	r2,r2,1
   40194:	e0bffd15 	stw	r2,-12(fp)
      if (active & mask)
   40198:	003fe406 	br	4012c <alt_irq_handler+0x30>

    } while (1);

    active = alt_irq_pending ();
   4019c:	e0bfff15 	stw	r2,-4(fp)
    
  } while (active);
   401a0:	e0bfff17 	ldw	r2,-4(fp)
   401a4:	103fde1e 	bne	r2,zero,40120 <alt_irq_handler+0x24>

  /*
   * Notify the operating system that interrupt processing is complete.
   */ 

  ALT_OS_INT_EXIT();
   401a8:	0001883a 	nop
}
   401ac:	0001883a 	nop
   401b0:	e037883a 	mov	sp,fp
   401b4:	dfc00117 	ldw	ra,4(sp)
   401b8:	df000017 	ldw	fp,0(sp)
   401bc:	dec00204 	addi	sp,sp,8
   401c0:	f800283a 	ret

000401c4 <alt_instruction_exception_entry>:
 * that handler if it has been registered. Absent a handler, it will
 * break break or hang as discussed below.
 */
int 
alt_instruction_exception_entry (alt_u32 exception_pc)
{
   401c4:	defffb04 	addi	sp,sp,-20
   401c8:	dfc00415 	stw	ra,16(sp)
   401cc:	df000315 	stw	fp,12(sp)
   401d0:	df000304 	addi	fp,sp,12
   401d4:	e13ffd15 	stw	r4,-12(fp)
 * NIOS2_EXCEPTION_CAUSE_NOT_PRESENT. Your handling routine should
 * check the validity of the cause argument before proceeding.
 */
#ifdef NIOS2_HAS_EXTRA_EXCEPTION_INFO
  /* Get exception cause & "badaddr" */
  NIOS2_READ_EXCEPTION(cause);
   401d8:	000531fa 	rdctl	r2,exception
   401dc:	e0bfff15 	stw	r2,-4(fp)
  cause = ( (cause & NIOS2_EXCEPTION_REG_CAUSE_MASK) >>
   401e0:	e0bfff17 	ldw	r2,-4(fp)
   401e4:	1004d0ba 	srli	r2,r2,2
   401e8:	108007cc 	andi	r2,r2,31
   401ec:	e0bfff15 	stw	r2,-4(fp)
              NIOS2_EXCEPTION_REG_CAUSE_OFST );

  NIOS2_READ_BADADDR(badaddr);
   401f0:	0005333a 	rdctl	r2,badaddr
   401f4:	e0bffe15 	stw	r2,-8(fp)
#else
  cause = NIOS2_EXCEPTION_CAUSE_NOT_PRESENT;
  badaddr = 0;
#endif /* NIOS2_HAS_EXTRA_EXCEPTION_INFO */

  if(alt_instruction_exception_handler) {
   401f8:	d0a71017 	ldw	r2,-25536(gp)
   401fc:	10000726 	beq	r2,zero,4021c <alt_instruction_exception_entry+0x58>
     * Call handler. Its return value indicates whether the exception-causing
     * instruction should be re-issued. The code that called us,
     * alt_eceptions_entry.S, will look at this value and adjust the ea
     * register as necessary
     */
    return alt_instruction_exception_handler(cause, exception_pc, badaddr);
   40200:	d0a71017 	ldw	r2,-25536(gp)
   40204:	e0ffff17 	ldw	r3,-4(fp)
   40208:	e1bffe17 	ldw	r6,-8(fp)
   4020c:	e17ffd17 	ldw	r5,-12(fp)
   40210:	1809883a 	mov	r4,r3
   40214:	103ee83a 	callr	r2
   40218:	00000206 	br	40224 <alt_instruction_exception_entry+0x60>
   *    (a peripheral which negates its interrupt output before its
   *    interrupt handler has been executed will cause spurious interrupts)
   */
  else {
#ifdef NIOS2_HAS_DEBUG_STUB
    NIOS2_BREAK();
   4021c:	003da03a 	break	0
      ;
#endif /* NIOS2_HAS_DEBUG_STUB */
  }

  /* We should not get here. Remove compiler warning. */
  return NIOS2_EXCEPTION_RETURN_REISSUE_INST;
   40220:	0005883a 	mov	r2,zero
}
   40224:	e037883a 	mov	sp,fp
   40228:	dfc00117 	ldw	ra,4(sp)
   4022c:	df000017 	ldw	fp,0(sp)
   40230:	dec00204 	addi	sp,sp,8
   40234:	f800283a 	ret

Disassembly of section .text:

00040238 <_start>:

    /* Assume the data cache size is always a power of two. */
#if NIOS2_DCACHE_SIZE > 0x8000
    movhi r2, %hi(NIOS2_DCACHE_SIZE)
#else
    movui r2, NIOS2_DCACHE_SIZE
   40238:	00820014 	movui	r2,2048
#endif

0:
    initd 0(r2)
   4023c:	10000033 	initd	0(r2)
#ifdef NIOS2_ECC_PRESENT
    addi r2, r2, -4
#else
    addi r2, r2, -NIOS2_DCACHE_LINE_SIZE
   40240:	10bff804 	addi	r2,r2,-32
#endif
    bgt r2, zero, 0b
   40244:	00bffd16 	blt	zero,r2,4023c <_start+0x4>

    /*
     * Now that the caches are initialized, set up the stack pointer and global pointer.
     * The values provided by the linker are assumed to be correctly aligned.
     */
    movhi sp, %hi(__alt_stack_pointer)
   40248:	06c001b4 	movhi	sp,6
    ori sp, sp, %lo(__alt_stack_pointer)
   4024c:	ded60014 	ori	sp,sp,22528
    movhi gp, %hi(_gp)
   40250:	06800174 	movhi	gp,5
    ori gp, gp, %lo(_gp)
   40254:	d6ad2f14 	ori	gp,gp,46268
 */
#ifndef ALT_SIM_OPTIMIZE
    /* Log that the BSS is about to be cleared. */
    ALT_LOG_PUTS(alt_log_msg_bss)

    movhi r2, %hi(__bss_start)
   40258:	00800174 	movhi	r2,5
    ori r2, r2, %lo(__bss_start)
   4025c:	10943314 	ori	r2,r2,20684

    movhi r3, %hi(__bss_end)
   40260:	00c00174 	movhi	r3,5
    ori r3, r3, %lo(__bss_end)
   40264:	18d48d14 	ori	r3,r3,21044

    beq r2, r3, 1f
   40268:	10c00326 	beq	r2,r3,40278 <_start+0x40>

0:
    stw zero, (r2)
   4026c:	10000015 	stw	zero,0(r2)
    addi r2, r2, 4
   40270:	10800104 	addi	r2,r2,4
    bltu r2, r3, 0b
   40274:	10fffd36 	bltu	r2,r3,4026c <_start+0x34>
     * section aren't defined until alt_load() has been called).
     */
    mov   et, zero
#endif

    call alt_load
   40278:	004efd80 	call	4efd8 <alt_load>

    /* Log that alt_main is about to be called. */
    ALT_LOG_PUTS(alt_log_msg_alt_main)

    /* Call the C entry point. It should never return. */
    call alt_main
   4027c:	004f16c0 	call	4f16c <alt_main>

00040280 <alt_after_alt_main>:

    /* Wait in infinite loop in case alt_main does return. */
alt_after_alt_main:
    br alt_after_alt_main
   40280:	003fff06 	br	40280 <alt_after_alt_main>

00040284 <config_device>:
//read_acceleration_data_raw();
adxl345_accel_range_t accel_range;
float _range_accel;


void config_device(adxl345_accel_range_t accel_range){
   40284:	defffc04 	addi	sp,sp,-16
   40288:	dfc00315 	stw	ra,12(sp)
   4028c:	df000215 	stw	fp,8(sp)
   40290:	df000204 	addi	fp,sp,8
   40294:	e13ffe15 	stw	r4,-8(fp)


    //Set device into measurement mode by making sure that the Measure bit is set to 1 in the
    //POWER_CTL register. Default value is 0xA, thus it is already on by default.
    write_to_i2c_device(ADXL345_ADDR,ADXL345_POWER_CTL_REG,1,0xA);
   40298:	01c00284 	movi	r7,10
   4029c:	01800044 	movi	r6,1
   402a0:	01400b44 	movi	r5,45
   402a4:	010014c4 	movi	r4,83
   402a8:	00409d00 	call	409d0 <write_to_i2c_device>

    //Set device data format
    _range_accel = accel_range;
   402ac:	e13ffe17 	ldw	r4,-8(fp)
   402b0:	00415100 	call	41510 <__floatunsisf>
   402b4:	1007883a 	mov	r3,r2
   402b8:	d0e70515 	stw	r3,-25580(gp)

    // Set bit D3 to full resolution
    // Set INT_INVERT bit to 1 to activate active low interrupt
    // All other values are default 0

    alt_u8 set_accel_config =  0x20 | 0x8;
   402bc:	00800a04 	movi	r2,40
   402c0:	e0bfffc5 	stb	r2,-1(fp)


    // Add settings for g-range
    switch(accel_range) {
   402c4:	e0bffe17 	ldw	r2,-8(fp)
   402c8:	10800420 	cmpeqi	r2,r2,16
   402cc:	1000171e 	bne	r2,zero,4032c <config_device+0xa8>
   402d0:	e0bffe17 	ldw	r2,-8(fp)
   402d4:	10800468 	cmpgeui	r2,r2,17
   402d8:	1000191e 	bne	r2,zero,40340 <config_device+0xbc>
   402dc:	e0bffe17 	ldw	r2,-8(fp)
   402e0:	10800220 	cmpeqi	r2,r2,8
   402e4:	10000d1e 	bne	r2,zero,4031c <config_device+0x98>
   402e8:	e0bffe17 	ldw	r2,-8(fp)
   402ec:	10800268 	cmpgeui	r2,r2,9
   402f0:	1000131e 	bne	r2,zero,40340 <config_device+0xbc>
   402f4:	e0bffe17 	ldw	r2,-8(fp)
   402f8:	108000a0 	cmpeqi	r2,r2,2
   402fc:	10000f1e 	bne	r2,zero,4033c <config_device+0xb8>
   40300:	e0bffe17 	ldw	r2,-8(fp)
   40304:	10800120 	cmpeqi	r2,r2,4
   40308:	10000d26 	beq	r2,zero,40340 <config_device+0xbc>
    case (ACCEL_RANGE_2G):
        set_accel_config = set_accel_config | (0b00);
        break;
    case (ACCEL_RANGE_4G):
        set_accel_config= set_accel_config | (0b01);
   4030c:	e0bfffc3 	ldbu	r2,-1(fp)
   40310:	10800054 	ori	r2,r2,1
   40314:	e0bfffc5 	stb	r2,-1(fp)
        break;
   40318:	00000906 	br	40340 <config_device+0xbc>
    case (ACCEL_RANGE_8G):
        set_accel_config= set_accel_config | (0b10);
   4031c:	e0bfffc3 	ldbu	r2,-1(fp)
   40320:	10800094 	ori	r2,r2,2
   40324:	e0bfffc5 	stb	r2,-1(fp)
        break;
   40328:	00000506 	br	40340 <config_device+0xbc>
    case (ACCEL_RANGE_16G):
        set_accel_config= set_accel_config | (0b11);
   4032c:	e0bfffc3 	ldbu	r2,-1(fp)
   40330:	108000d4 	ori	r2,r2,3
   40334:	e0bfffc5 	stb	r2,-1(fp)
        break;
   40338:	00000106 	br	40340 <config_device+0xbc>
        break;
   4033c:	0001883a 	nop




    //Data format register
    write_to_i2c_device(ADXL345_ADDR,ADXL345_DATA_FORMAT_REG,1,set_accel_config);
   40340:	e0bfffc3 	ldbu	r2,-1(fp)
   40344:	100f883a 	mov	r7,r2
   40348:	01800044 	movi	r6,1
   4034c:	01400c44 	movi	r5,49
   40350:	010014c4 	movi	r4,83
   40354:	00409d00 	call	409d0 <write_to_i2c_device>
    printf("Configuring ADXL345\n");
   40358:	01000174 	movhi	r4,5
   4035c:	21048a04 	addi	r4,r4,4648
   40360:	00418a00 	call	418a0 <puts>

    //Disable FIFO, STREAM and Trigger mode. Not necessary as default is 0x0.
    write_to_i2c_device(ADXL345_ADDR,ADXL345_FIFO_CTL_REG,1,0x00);
   40364:	000f883a 	mov	r7,zero
   40368:	01800044 	movi	r6,1
   4036c:	01400e04 	movi	r5,56
   40370:	010014c4 	movi	r4,83
   40374:	00409d00 	call	409d0 <write_to_i2c_device>

    //set tap thresholds
    // The THRESH_TAP register is eight bits and holds the threshold value for tap interrupts. The data format is unsigned, therefore, the magnitude of the tap event is compared with the value in THRESH_TAP for normal tap detection. The scale factor is 62.5 mg/LSB (that is, 0xFF = 16 g). A value of 0 may result in undesirable behavior if single tap/double tap interrupts are enabled.
    write_to_i2c_device(ADXL345_ADDR,ADXL345_THRESH_TAP_REG,1,0x20); //1000 mg
   40378:	01c00804 	movi	r7,32
   4037c:	01800044 	movi	r6,1
   40380:	01400744 	movi	r5,29
   40384:	010014c4 	movi	r4,83
   40388:	00409d00 	call	409d0 <write_to_i2c_device>
    //The DUR register is eight bits and contains an unsigned time value representing the maximum time that an event must be above the THRESH_TAP threshold to qualify as a tap event. The scale factor is 625 μs/LSB. A value of 0 disables the single tap/ double tap functions.
    write_to_i2c_device(ADXL345_ADDR,ADXL345_DUR_REG,1,0x40); // < 30 ms
   4038c:	01c01004 	movi	r7,64
   40390:	01800044 	movi	r6,1
   40394:	01400844 	movi	r5,33
   40398:	010014c4 	movi	r4,83
   4039c:	00409d00 	call	409d0 <write_to_i2c_device>
    //The latent register is eight bits and contains an unsigned time value representing the wait time from the detection of a tap event to the start of the time window (defined by the window register) during which a possible second tap event can be detected. The scale factor is 1.25 ms/LSB. A value of 0 disables the double tap function.
    write_to_i2c_device(ADXL345_ADDR,ADXL345_LATENT_REG,1,0x60); //40 ms
   403a0:	01c01804 	movi	r7,96
   403a4:	01800044 	movi	r6,1
   403a8:	01400884 	movi	r5,34
   403ac:	010014c4 	movi	r4,83
   403b0:	00409d00 	call	409d0 <write_to_i2c_device>
    //The window register is eight bits and contains an unsigned time value representing the amount of time after the expiration of the latency time (determined by the latent register) during which a second valid tap can begin. The scale factor is 1.25 ms/LSB. A value of 0 disables the double tap function
    write_to_i2c_device(ADXL345_ADDR,ADXL345_WINDOW_REG,1,0xFF); //38.75 ms
   403b4:	01c03fc4 	movi	r7,255
   403b8:	01800044 	movi	r6,1
   403bc:	014008c4 	movi	r5,35
   403c0:	010014c4 	movi	r4,83
   403c4:	00409d00 	call	409d0 <write_to_i2c_device>


    //Initialize interrupts to be used
    write_to_i2c_device(ADXL345_ADDR,ADXL345_INT_MAP_REG,1,0x20); // map double tap to int2 pin and data ready to int1 pin
   403c8:	01c00804 	movi	r7,32
   403cc:	01800044 	movi	r6,1
   403d0:	01400bc4 	movi	r5,47
   403d4:	010014c4 	movi	r4,83
   403d8:	00409d00 	call	409d0 <write_to_i2c_device>
    write_to_i2c_device(ADXL345_ADDR,ADXL345_TAP_AXES_REG,1,0x07); // x,y,z-axis
   403dc:	01c001c4 	movi	r7,7
   403e0:	01800044 	movi	r6,1
   403e4:	01400a84 	movi	r5,42
   403e8:	010014c4 	movi	r4,83
   403ec:	00409d00 	call	409d0 <write_to_i2c_device>
    write_to_i2c_device(ADXL345_ADDR,ADXL345_INT_ENABLE_REG,1,0xa0); // Enable data ready and double tap
   403f0:	01c02804 	movi	r7,160
   403f4:	01800044 	movi	r6,1
   403f8:	01400b84 	movi	r5,46
   403fc:	010014c4 	movi	r4,83
   40400:	00409d00 	call	409d0 <write_to_i2c_device>

}
   40404:	0001883a 	nop
   40408:	e037883a 	mov	sp,fp
   4040c:	dfc00117 	ldw	ra,4(sp)
   40410:	df000017 	ldw	fp,0(sp)
   40414:	dec00204 	addi	sp,sp,8
   40418:	f800283a 	ret

0004041c <read_device_id>:

alt_u8 read_device_id(void){
   4041c:	defffc04 	addi	sp,sp,-16
   40420:	dfc00315 	stw	ra,12(sp)
   40424:	df000215 	stw	fp,8(sp)
   40428:	df000204 	addi	fp,sp,8

    alt_u8 data[8] = {0};
   4042c:	e03ffe15 	stw	zero,-8(fp)
   40430:	e03fff15 	stw	zero,-4(fp)
    read_from_i2c_device(ADXL345_ADDR,ADXL345_DEV_ID_REG,1,&data[0]);
   40434:	e0bffe04 	addi	r2,fp,-8
   40438:	100f883a 	mov	r7,r2
   4043c:	01800044 	movi	r6,1
   40440:	000b883a 	mov	r5,zero
   40444:	010014c4 	movi	r4,83
   40448:	0040a680 	call	40a68 <read_from_i2c_device>

    return ((alt_u8) data[0]) & 0xff;
   4044c:	e0bffe03 	ldbu	r2,-8(fp)
}
   40450:	e037883a 	mov	sp,fp
   40454:	dfc00117 	ldw	ra,4(sp)
   40458:	df000017 	ldw	fp,0(sp)
   4045c:	dec00204 	addi	sp,sp,8
   40460:	f800283a 	ret

00040464 <read_irq_reg>:


alt_u8 read_irq_reg(void){
   40464:	defffd04 	addi	sp,sp,-12
   40468:	dfc00215 	stw	ra,8(sp)
   4046c:	df000115 	stw	fp,4(sp)
   40470:	df000104 	addi	fp,sp,4
    alt_u8 data = 0;
   40474:	e03fffc5 	stb	zero,-1(fp)
    read_from_i2c_device(ADXL345_ADDR,ADXL345_INT_SOURCE_REG,1,&data);
   40478:	e0bfffc4 	addi	r2,fp,-1
   4047c:	100f883a 	mov	r7,r2
   40480:	01800044 	movi	r6,1
   40484:	01400c04 	movi	r5,48
   40488:	010014c4 	movi	r4,83
   4048c:	0040a680 	call	40a68 <read_from_i2c_device>
    printf("IRQREG: 0x%x\n",data);
   40490:	e0bfffc3 	ldbu	r2,-1(fp)
   40494:	10803fcc 	andi	r2,r2,255
   40498:	100b883a 	mov	r5,r2
   4049c:	01000174 	movhi	r4,5
   404a0:	21048f04 	addi	r4,r4,4668
   404a4:	00417980 	call	41798 <printf>
    return data;
   404a8:	e0bfffc3 	ldbu	r2,-1(fp)
}
   404ac:	e037883a 	mov	sp,fp
   404b0:	dfc00117 	ldw	ra,4(sp)
   404b4:	df000017 	ldw	fp,0(sp)
   404b8:	dec00204 	addi	sp,sp,8
   404bc:	f800283a 	ret

000404c0 <read_adxl345_reg>:

alt_u8 read_adxl345_reg(int reg_addr){
   404c0:	defffc04 	addi	sp,sp,-16
   404c4:	dfc00315 	stw	ra,12(sp)
   404c8:	df000215 	stw	fp,8(sp)
   404cc:	df000204 	addi	fp,sp,8
   404d0:	e13ffe15 	stw	r4,-8(fp)
    alt_u8 data = 0;
   404d4:	e03fffc5 	stb	zero,-1(fp)
    read_from_i2c_device(ADXL345_ADDR,reg_addr,1,&data);
   404d8:	e0bffe17 	ldw	r2,-8(fp)
   404dc:	10803fcc 	andi	r2,r2,255
   404e0:	e0ffffc4 	addi	r3,fp,-1
   404e4:	180f883a 	mov	r7,r3
   404e8:	01800044 	movi	r6,1
   404ec:	100b883a 	mov	r5,r2
   404f0:	010014c4 	movi	r4,83
   404f4:	0040a680 	call	40a68 <read_from_i2c_device>
    printf("IRQREG: 0x%x\n",data);
   404f8:	e0bfffc3 	ldbu	r2,-1(fp)
   404fc:	10803fcc 	andi	r2,r2,255
   40500:	100b883a 	mov	r5,r2
   40504:	01000174 	movhi	r4,5
   40508:	21048f04 	addi	r4,r4,4668
   4050c:	00417980 	call	41798 <printf>
    return data;
   40510:	e0bfffc3 	ldbu	r2,-1(fp)
}
   40514:	e037883a 	mov	sp,fp
   40518:	dfc00117 	ldw	ra,4(sp)
   4051c:	df000017 	ldw	fp,0(sp)
   40520:	dec00204 	addi	sp,sp,8
   40524:	f800283a 	ret

00040528 <read_acceleration_data>:


adxl345_data_t read_acceleration_data(){
   40528:	defff204 	addi	sp,sp,-56
   4052c:	dfc00d15 	stw	ra,52(sp)
   40530:	df000c15 	stw	fp,48(sp)
   40534:	df000c04 	addi	fp,sp,48
   40538:	e13ff415 	stw	r4,-48(fp)


    alt_u16 ax = 0, ay = 0, az = 0;
   4053c:	e03ffe8d 	sth	zero,-6(fp)
   40540:	e03ffe0d 	sth	zero,-8(fp)
   40544:	e03ffd8d 	sth	zero,-10(fp)
    float value = 0;
   40548:	e03ffc15 	stw	zero,-16(fp)
    adxl345_data_t accel_data;
    alt_u8 data[8] = {0};
   4054c:	e03ff515 	stw	zero,-44(fp)
   40550:	e03ff615 	stw	zero,-40(fp)
    alt_u8 no_bytes =6;
   40554:	00800184 	movi	r2,6
   40558:	e0bffbc5 	stb	r2,-17(fp)
    //read_from_i2c_device(ADXL345_ADDR,ADXL345_DATAX0_REG,no_bytes,&data[0]);

    read_from_i2c_device(ADXL345_ADDR,ADXL345_DATAX0_REG,1,&data[0]);
   4055c:	e0bff504 	addi	r2,fp,-44
   40560:	100f883a 	mov	r7,r2
   40564:	01800044 	movi	r6,1
   40568:	01400c84 	movi	r5,50
   4056c:	010014c4 	movi	r4,83
   40570:	0040a680 	call	40a68 <read_from_i2c_device>
    read_from_i2c_device(ADXL345_ADDR,ADXL345_DATAX1_REG,1,&data[1]);
   40574:	e0bff504 	addi	r2,fp,-44
   40578:	10800044 	addi	r2,r2,1
   4057c:	100f883a 	mov	r7,r2
   40580:	01800044 	movi	r6,1
   40584:	01400cc4 	movi	r5,51
   40588:	010014c4 	movi	r4,83
   4058c:	0040a680 	call	40a68 <read_from_i2c_device>
    read_from_i2c_device(ADXL345_ADDR,ADXL345_DATAY0_REG,1,&data[2]);
   40590:	e0bff504 	addi	r2,fp,-44
   40594:	10800084 	addi	r2,r2,2
   40598:	100f883a 	mov	r7,r2
   4059c:	01800044 	movi	r6,1
   405a0:	01400d04 	movi	r5,52
   405a4:	010014c4 	movi	r4,83
   405a8:	0040a680 	call	40a68 <read_from_i2c_device>
    read_from_i2c_device(ADXL345_ADDR,ADXL345_DATAY1_REG,1,&data[3]);
   405ac:	e0bff504 	addi	r2,fp,-44
   405b0:	108000c4 	addi	r2,r2,3
   405b4:	100f883a 	mov	r7,r2
   405b8:	01800044 	movi	r6,1
   405bc:	01400d44 	movi	r5,53
   405c0:	010014c4 	movi	r4,83
   405c4:	0040a680 	call	40a68 <read_from_i2c_device>
    read_from_i2c_device(ADXL345_ADDR,ADXL345_DATAZ0_REG,1,&data[4]);
   405c8:	e0bff504 	addi	r2,fp,-44
   405cc:	10800104 	addi	r2,r2,4
   405d0:	100f883a 	mov	r7,r2
   405d4:	01800044 	movi	r6,1
   405d8:	01400d84 	movi	r5,54
   405dc:	010014c4 	movi	r4,83
   405e0:	0040a680 	call	40a68 <read_from_i2c_device>
    read_from_i2c_device(ADXL345_ADDR,ADXL345_DATAZ1_REG,1,&data[5]);
   405e4:	e0bff504 	addi	r2,fp,-44
   405e8:	10800144 	addi	r2,r2,5
   405ec:	100f883a 	mov	r7,r2
   405f0:	01800044 	movi	r6,1
   405f4:	01400dc4 	movi	r5,55
   405f8:	010014c4 	movi	r4,83
   405fc:	0040a680 	call	40a68 <read_from_i2c_device>

    ax = data[1] << 8 | data[0];
   40600:	e0bff543 	ldbu	r2,-43(fp)
   40604:	10803fcc 	andi	r2,r2,255
   40608:	1004923a 	slli	r2,r2,8
   4060c:	1007883a 	mov	r3,r2
   40610:	e0bff503 	ldbu	r2,-44(fp)
   40614:	10803fcc 	andi	r2,r2,255
   40618:	1884b03a 	or	r2,r3,r2
   4061c:	e0bffe8d 	sth	r2,-6(fp)
    ay = data[3] << 8 | data[2];
   40620:	e0bff5c3 	ldbu	r2,-41(fp)
   40624:	10803fcc 	andi	r2,r2,255
   40628:	1004923a 	slli	r2,r2,8
   4062c:	1007883a 	mov	r3,r2
   40630:	e0bff583 	ldbu	r2,-42(fp)
   40634:	10803fcc 	andi	r2,r2,255
   40638:	1884b03a 	or	r2,r3,r2
   4063c:	e0bffe0d 	sth	r2,-8(fp)
    az = data[5] << 8 | data[4];
   40640:	e0bff643 	ldbu	r2,-39(fp)
   40644:	10803fcc 	andi	r2,r2,255
   40648:	1004923a 	slli	r2,r2,8
   4064c:	1007883a 	mov	r3,r2
   40650:	e0bff603 	ldbu	r2,-40(fp)
   40654:	10803fcc 	andi	r2,r2,255
   40658:	1884b03a 	or	r2,r3,r2
   4065c:	e0bffd8d 	sth	r2,-10(fp)


    read_from_i2c_device(ADXL345_ADDR,ADXL345_DATA_FORMAT_REG,1,&data[0]);
   40660:	e0bff504 	addi	r2,fp,-44
   40664:	100f883a 	mov	r7,r2
   40668:	01800044 	movi	r6,1
   4066c:	01400c44 	movi	r5,49
   40670:	010014c4 	movi	r4,83
   40674:	0040a680 	call	40a68 <read_from_i2c_device>

    int full_res_bit = (data[0] >> 3 ) & 0x1;
   40678:	e0bff503 	ldbu	r2,-44(fp)
   4067c:	10803fcc 	andi	r2,r2,255
   40680:	1004d0fa 	srli	r2,r2,3
   40684:	10803fcc 	andi	r2,r2,255
   40688:	1080004c 	andi	r2,r2,1
   4068c:	e0bffa15 	stw	r2,-24(fp)


    float resolution = (float) _range_accel / 512.0;
   40690:	d0a70517 	ldw	r2,-25580(gp)
   40694:	01510034 	movhi	r5,17408
   40698:	1009883a 	mov	r4,r2
   4069c:	0040be80 	call	40be8 <__divsf3>
   406a0:	1007883a 	mov	r3,r2
   406a4:	e0ffff15 	stw	r3,-4(fp)

    if (full_res_bit) {
   406a8:	e0bffa17 	ldw	r2,-24(fp)
   406ac:	10000226 	beq	r2,zero,406b8 <read_acceleration_data+0x190>
        resolution  = (float) 2/512;
   406b0:	008ee034 	movhi	r2,15232
   406b4:	e0bfff15 	stw	r2,-4(fp)
    }



    value = (alt_16)ax;
   406b8:	e0bffe8b 	ldhu	r2,-6(fp)
   406bc:	10bfffcc 	andi	r2,r2,65535
   406c0:	10a0001c 	xori	r2,r2,32768
   406c4:	10a00004 	addi	r2,r2,-32768
   406c8:	1009883a 	mov	r4,r2
   406cc:	00413e80 	call	413e8 <__floatsisf>
   406d0:	1007883a 	mov	r3,r2
   406d4:	e0fffc15 	stw	r3,-16(fp)
    //accel_raw_data.x = ax;
    accel_data.x = value * resolution;
   406d8:	e17fff17 	ldw	r5,-4(fp)
   406dc:	e13ffc17 	ldw	r4,-16(fp)
   406e0:	00410000 	call	41000 <__mulsf3>
   406e4:	1007883a 	mov	r3,r2
   406e8:	1805883a 	mov	r2,r3
   406ec:	e0bff715 	stw	r2,-36(fp)

    value = (alt_16)ay;
   406f0:	e0bffe0b 	ldhu	r2,-8(fp)
   406f4:	10bfffcc 	andi	r2,r2,65535
   406f8:	10a0001c 	xori	r2,r2,32768
   406fc:	10a00004 	addi	r2,r2,-32768
   40700:	1009883a 	mov	r4,r2
   40704:	00413e80 	call	413e8 <__floatsisf>
   40708:	1007883a 	mov	r3,r2
   4070c:	e0fffc15 	stw	r3,-16(fp)
    //accel_raw_data.y = ay;
    accel_data.y = value * resolution;
   40710:	e17fff17 	ldw	r5,-4(fp)
   40714:	e13ffc17 	ldw	r4,-16(fp)
   40718:	00410000 	call	41000 <__mulsf3>
   4071c:	1007883a 	mov	r3,r2
   40720:	1805883a 	mov	r2,r3
   40724:	e0bff815 	stw	r2,-32(fp)

    value = (alt_16)az;
   40728:	e0bffd8b 	ldhu	r2,-10(fp)
   4072c:	10bfffcc 	andi	r2,r2,65535
   40730:	10a0001c 	xori	r2,r2,32768
   40734:	10a00004 	addi	r2,r2,-32768
   40738:	1009883a 	mov	r4,r2
   4073c:	00413e80 	call	413e8 <__floatsisf>
   40740:	1007883a 	mov	r3,r2
   40744:	e0fffc15 	stw	r3,-16(fp)
    //accel_raw_data.z = az;   //accRange * value / 32768;
    accel_data.z = value * resolution;
   40748:	e17fff17 	ldw	r5,-4(fp)
   4074c:	e13ffc17 	ldw	r4,-16(fp)
   40750:	00410000 	call	41000 <__mulsf3>
   40754:	1007883a 	mov	r3,r2
   40758:	1805883a 	mov	r2,r3
   4075c:	e0bff915 	stw	r2,-28(fp)

    return accel_data;
   40760:	e0bff417 	ldw	r2,-48(fp)
   40764:	e0fff717 	ldw	r3,-36(fp)
   40768:	10c00015 	stw	r3,0(r2)
   4076c:	e0fff817 	ldw	r3,-32(fp)
   40770:	10c00115 	stw	r3,4(r2)
   40774:	e0fff917 	ldw	r3,-28(fp)
   40778:	10c00215 	stw	r3,8(r2)

}
   4077c:	e0bff417 	ldw	r2,-48(fp)
   40780:	e037883a 	mov	sp,fp
   40784:	dfc00117 	ldw	ra,4(sp)
   40788:	df000017 	ldw	fp,0(sp)
   4078c:	dec00204 	addi	sp,sp,8
   40790:	f800283a 	ret

00040794 <handle_interrupts>:


/* This is the ISR which will be called when the system signals an interrupt. */

static void handle_interrupts(void* context)
{
   40794:	defffd04 	addi	sp,sp,-12
   40798:	df000215 	stw	fp,8(sp)
   4079c:	df000204 	addi	fp,sp,8
   407a0:	e13ffe15 	stw	r4,-8(fp)
	//Cast context to edge_capture's type
	//Volatile to avoid compiler optimization
  //this will point to the edge_capture variable.
	volatile int* edge_capture_ptr = (volatile int*) context;
   407a4:	e0bffe17 	ldw	r2,-8(fp)
   407a8:	e0bfff15 	stw	r2,-4(fp)

	//Read the edge capture register on the PIO and store the value
  //The value will be stored in the edge_capture variable and accessible
  //from other parts of the code.
	*edge_capture_ptr = IORD_ALTERA_AVALON_PIO_EDGE_CAP(INTERRUPT_PIO_BASE);
   407ac:	00800234 	movhi	r2,8
   407b0:	10c41337 	ldwio	r3,4172(r2)
   407b4:	e0bfff17 	ldw	r2,-4(fp)
   407b8:	10c00015 	stw	r3,0(r2)

	//Write to edge capture register to reset it
	IOWR_ALTERA_AVALON_PIO_EDGE_CAP(INTERRUPT_PIO_BASE,0);
   407bc:	0007883a 	mov	r3,zero
   407c0:	00800234 	movhi	r2,8
   407c4:	10c41335 	stwio	r3,4172(r2)
}
   407c8:	0001883a 	nop
   407cc:	e037883a 	mov	sp,fp
   407d0:	df000017 	ldw	fp,0(sp)
   407d4:	dec00104 	addi	sp,sp,4
   407d8:	f800283a 	ret

000407dc <init_interrupt_pio>:


/* This function is used to initializes and registers the interrupt handler. */
static void init_interrupt_pio()
{
   407dc:	defffc04 	addi	sp,sp,-16
   407e0:	dfc00315 	stw	ra,12(sp)
   407e4:	df000215 	stw	fp,8(sp)
   407e8:	df000204 	addi	fp,sp,8
	//Recast the edge_capture point to match the
	//alt_irq_register() function prototypo
	void* edge_capture_ptr = (void*)&edge_capture;
   407ec:	d0a70604 	addi	r2,gp,-25576
   407f0:	e0bfff15 	stw	r2,-4(fp)

	//Enable all 3 interrupt inputs by writing a one to the corresponding interruptmask bit locations
	IOWR_ALTERA_AVALON_PIO_IRQ_MASK(INTERRUPT_PIO_BASE,0x7);
   407f4:	00c001c4 	movi	r3,7
   407f8:	00800234 	movhi	r2,8
   407fc:	10c41235 	stwio	r3,4168(r2)

	//Reset the edge capture register
	IOWR_ALTERA_AVALON_PIO_EDGE_CAP(INTERRUPT_PIO_BASE,0);
   40800:	0007883a 	mov	r3,zero
   40804:	00800234 	movhi	r2,8
   40808:	10c41335 	stwio	r3,4172(r2)

	//Register the interrupt handler in the system
  //The ID and PIO_IRQ number is available from the system.h file.
	alt_ic_isr_register(INTERRUPT_PIO_IRQ_INTERRUPT_CONTROLLER_ID,
   4080c:	d8000015 	stw	zero,0(sp)
   40810:	e1ffff17 	ldw	r7,-4(fp)
   40814:	01800134 	movhi	r6,4
   40818:	3181e504 	addi	r6,r6,1940
   4081c:	01400144 	movi	r5,5
   40820:	0009883a 	mov	r4,zero
   40824:	004eacc0 	call	4eacc <alt_ic_isr_register>
			INTERRUPT_PIO_IRQ, handle_interrupts, edge_capture_ptr, 0x0);
}
   40828:	0001883a 	nop
   4082c:	e037883a 	mov	sp,fp
   40830:	dfc00117 	ldw	ra,4(sp)
   40834:	df000017 	ldw	fp,0(sp)
   40838:	dec00204 	addi	sp,sp,8
   4083c:	f800283a 	ret

00040840 <main>:
int main(void)
{
   40840:	deffef04 	addi	sp,sp,-68
   40844:	dfc01015 	stw	ra,64(sp)
   40848:	df000f15 	stw	fp,60(sp)
   4084c:	dcc00e15 	stw	r19,56(sp)
   40850:	dc800d15 	stw	r18,52(sp)
   40854:	dc400c15 	stw	r17,48(sp)
   40858:	dc000b15 	stw	r16,44(sp)
   4085c:	df000f04 	addi	fp,sp,60
  //-----------------------------------
  // Hentet fra fasit

    alt_u8 dev_id =  0;
   40860:	e03ffbc5 	stb	zero,-17(fp)
    adxl345_data_t accel_data;

    alt_u8 adxl345_int_reg;
//-----------------------------------
  //Initialize the interrupts
	init_interrupt_pio();
   40864:	00407dc0 	call	407dc <init_interrupt_pio>

  //Variable to hold values from switches
	int sw_data = 0;
   40868:	e03ffa15 	stw	zero,-24(fp)
	printf("Hello from Nios II!\n");
   4086c:	01000174 	movhi	r4,5
   40870:	21049304 	addi	r4,r4,4684
   40874:	00418a00 	call	418a0 <puts>

//-------------------------------------
// Hentet fra fasit
    dev_id = read_device_id();
   40878:	004041c0 	call	4041c <read_device_id>
   4087c:	e0bffbc5 	stb	r2,-17(fp)
    if(dev_id != ADXL345_DEV_ID){
   40880:	e0bffbc3 	ldbu	r2,-17(fp)
   40884:	10803960 	cmpeqi	r2,r2,229
   40888:	1000081e 	bne	r2,zero,408ac <main+0x6c>
      printf("Wrong device ID: 0x%x!\n",dev_id);
   4088c:	e0bffbc3 	ldbu	r2,-17(fp)
   40890:	100b883a 	mov	r5,r2
   40894:	01000174 	movhi	r4,5
   40898:	21049804 	addi	r4,r4,4704
   4089c:	00417980 	call	41798 <printf>
      usleep(5000000); //Wait for 5 seconds
   408a0:	01001334 	movhi	r4,76
   408a4:	2112d004 	addi	r4,r4,19264
   408a8:	004f4780 	call	4f478 <usleep>
    }
    config_device(ACCEL_RANGE_8G);
   408ac:	01000204 	movi	r4,8
   408b0:	00402840 	call	40284 <config_device>

    //Variable to hold values from switches

    //alt_u64 adxl345_data = 0;
    accel_data = read_acceleration_data();
   408b4:	e0bff704 	addi	r2,fp,-36
   408b8:	1009883a 	mov	r4,r2
   408bc:	00405280 	call	40528 <read_acceleration_data>


	while(1){

    //use the IORD and IOWR functions to read and write from LEDs and SW
	sw_data = IORD(SW_PIO_BASE,0);
   408c0:	00800234 	movhi	r2,8
   408c4:	10841837 	ldwio	r2,4192(r2)
   408c8:	e0bffa15 	stw	r2,-24(fp)
	  IOWR(LED_PIO_BASE,0,sw_data);
   408cc:	e0fffa17 	ldw	r3,-24(fp)
   408d0:	00800234 	movhi	r2,8
   408d4:	10c41435 	stwio	r3,4176(r2)
	             printf("ax: %-.5f, ay: %-.5f, az: %-.5f\n",accel_data.x,accel_data.y,accel_data.z);
	             printf("edge %d", edge_capture);
	             usleep(5000000);*/
    //When an interrupt event has occurred, the edge_capture variable has been updated

	  if (edge_capture == 0x1) //bit position 0 corresponds to button press
   408d8:	d0a70617 	ldw	r2,-25576(gp)
   408dc:	10800058 	cmpnei	r2,r2,1
   408e0:	1000051e 	bne	r2,zero,408f8 <main+0xb8>
	  	  {
		   printf("Hi from interrupt routine, Key1 was pressed!\n");
   408e4:	01000174 	movhi	r4,5
   408e8:	21049e04 	addi	r4,r4,4728
   408ec:	00418a00 	call	418a0 <puts>
		   edge_capture = 0; // reset variable to "unregister" event
   408f0:	d0270615 	stw	zero,-25576(gp)
   408f4:	003ff206 	br	408c0 <main+0x80>
	  	  }
	  else
        {
            //printf("Hi from interrupt routine, ADXL345 IRQ 0 activated, ADXL345_INT_SOURCE_REG: 0x%x!\n",adxl345_int_reg);
            accel_data = read_acceleration_data(); // Reading data registers will clear data related interrupts
   408f8:	e0bff404 	addi	r2,fp,-48
   408fc:	1009883a 	mov	r4,r2
   40900:	00405280 	call	40528 <read_acceleration_data>
   40904:	e0bff417 	ldw	r2,-48(fp)
   40908:	e0bff715 	stw	r2,-36(fp)
   4090c:	e0bff517 	ldw	r2,-44(fp)
   40910:	e0bff815 	stw	r2,-32(fp)
   40914:	e0bff617 	ldw	r2,-40(fp)
   40918:	e0bff915 	stw	r2,-28(fp)
            edge_capture = 0;                     // reset variable to "unregister" event
   4091c:	d0270615 	stw	zero,-25576(gp)
            printf("ax: %-.5f, ay: %-.5f, az: %-.5f\n",accel_data.x,accel_data.y,accel_data.z);
   40920:	e0bff717 	ldw	r2,-36(fp)
   40924:	1009883a 	mov	r4,r2
   40928:	004161c0 	call	4161c <__extendsfdf2>
   4092c:	1025883a 	mov	r18,r2
   40930:	1827883a 	mov	r19,r3
   40934:	e0bff817 	ldw	r2,-32(fp)
   40938:	1009883a 	mov	r4,r2
   4093c:	004161c0 	call	4161c <__extendsfdf2>
   40940:	1021883a 	mov	r16,r2
   40944:	1823883a 	mov	r17,r3
   40948:	e0bff917 	ldw	r2,-28(fp)
   4094c:	1009883a 	mov	r4,r2
   40950:	004161c0 	call	4161c <__extendsfdf2>
   40954:	1009883a 	mov	r4,r2
   40958:	180b883a 	mov	r5,r3
   4095c:	d9000115 	stw	r4,4(sp)
   40960:	d9400215 	stw	r5,8(sp)
   40964:	dc400015 	stw	r17,0(sp)
   40968:	800f883a 	mov	r7,r16
   4096c:	900b883a 	mov	r5,r18
   40970:	980d883a 	mov	r6,r19
   40974:	01000174 	movhi	r4,5
   40978:	2104aa04 	addi	r4,r4,4776
   4097c:	00417980 	call	41798 <printf>
            usleep(5000000);
   40980:	01001334 	movhi	r4,76
   40984:	2112d004 	addi	r4,r4,19264
   40988:	004f4780 	call	4f478 <usleep>
	sw_data = IORD(SW_PIO_BASE,0);
   4098c:	003fcc06 	br	408c0 <main+0x80>

00040990 <check_mm_if_busy>:
#include "unistd.h" //usleep()

// #define DEBUG

int check_mm_if_busy(void)
{
   40990:	defffe04 	addi	sp,sp,-8
   40994:	df000115 	stw	fp,4(sp)
   40998:	df000104 	addi	fp,sp,4
    //Read control register of I2C-mm if
    int res = IORD(I2C_AVALON_MM_IF_0_BASE,CTRL_REG);
   4099c:	00800234 	movhi	r2,8
   409a0:	10840037 	ldwio	r2,4096(r2)
   409a4:	e0bfff15 	stw	r2,-4(fp)
    //check if I2C_AVALON_MM_IF state machine is busy
  #ifdef DEBUG
    printf("CTRL: 0x%x\n",res);
  #endif
    if (check_bit(res,MM_IF_BUSY))
   409a8:	e0bfff17 	ldw	r2,-4(fp)
   409ac:	1080200c 	andi	r2,r2,128
   409b0:	10000226 	beq	r2,zero,409bc <check_mm_if_busy+0x2c>
    {
        return 1;
   409b4:	00800044 	movi	r2,1
   409b8:	00000106 	br	409c0 <check_mm_if_busy+0x30>
    }
    else
    {
        return 0;
   409bc:	0005883a 	mov	r2,zero
    }
}
   409c0:	e037883a 	mov	sp,fp
   409c4:	df000017 	ldw	fp,0(sp)
   409c8:	dec00104 	addi	sp,sp,4
   409cc:	f800283a 	ret

000409d0 <write_to_i2c_device>:

void write_to_i2c_device(alt_u8 i2c_device_addr, alt_u8 i2c_reg_addr,alt_u8 no_bytes,alt_u32 data)
{
   409d0:	defffa04 	addi	sp,sp,-24
   409d4:	dfc00515 	stw	ra,20(sp)
   409d8:	df000415 	stw	fp,16(sp)
   409dc:	df000404 	addi	fp,sp,16
   409e0:	2005883a 	mov	r2,r4
   409e4:	2809883a 	mov	r4,r5
   409e8:	3007883a 	mov	r3,r6
   409ec:	e1fffc15 	stw	r7,-16(fp)
   409f0:	e0bfff05 	stb	r2,-4(fp)
   409f4:	2005883a 	mov	r2,r4
   409f8:	e0bffe05 	stb	r2,-8(fp)
   409fc:	1805883a 	mov	r2,r3
   40a00:	e0bffd05 	stb	r2,-12(fp)
    //write to address register of i2c mm if
    IOWR(I2C_AVALON_MM_IF_0_BASE,ADDR_REG, i2c_reg_addr << 8 | i2c_device_addr);
   40a04:	e0bffe03 	ldbu	r2,-8(fp)
   40a08:	1006923a 	slli	r3,r2,8
   40a0c:	e0bfff03 	ldbu	r2,-4(fp)
   40a10:	1886b03a 	or	r3,r3,r2
   40a14:	00800234 	movhi	r2,8
   40a18:	10c40135 	stwio	r3,4100(r2)
    //write to the data register of the i2c mm if
    IOWR(I2C_AVALON_MM_IF_0_BASE,WRITE_REG,data);
   40a1c:	e0fffc17 	ldw	r3,-16(fp)
   40a20:	00800234 	movhi	r2,8
   40a24:	10c40235 	stwio	r3,4104(r2)
    //Set the corresponding bits of the ctrl register to enable the i2c communication
    IOWR(I2C_AVALON_MM_IF_0_BASE,CTRL_REG,no_bytes << 2 | CMD_ENA_WR);
   40a28:	e0bffd03 	ldbu	r2,-12(fp)
   40a2c:	100490ba 	slli	r2,r2,2
   40a30:	10c00054 	ori	r3,r2,1
   40a34:	00800234 	movhi	r2,8
   40a38:	10c40035 	stwio	r3,4096(r2)
    //Check for busy in the ctrl register (i2c busy or mm if busy), and continue when no longer busy
    while(check_mm_if_busy()) continue;
   40a3c:	00000106 	br	40a44 <write_to_i2c_device+0x74>
   40a40:	0001883a 	nop
   40a44:	00409900 	call	40990 <check_mm_if_busy>
   40a48:	103ffd1e 	bne	r2,zero,40a40 <write_to_i2c_device+0x70>
}
   40a4c:	0001883a 	nop
   40a50:	0001883a 	nop
   40a54:	e037883a 	mov	sp,fp
   40a58:	dfc00117 	ldw	ra,4(sp)
   40a5c:	df000017 	ldw	fp,0(sp)
   40a60:	dec00204 	addi	sp,sp,8
   40a64:	f800283a 	ret

00040a68 <read_from_i2c_device>:

void read_from_i2c_device(alt_u8 i2c_device_addr,alt_u8 i2c_reg_addr,alt_u8 no_bytes, alt_u8* data)
{
   40a68:	defff404 	addi	sp,sp,-48
   40a6c:	dfc00b15 	stw	ra,44(sp)
   40a70:	df000a15 	stw	fp,40(sp)
   40a74:	df000a04 	addi	fp,sp,40
   40a78:	2005883a 	mov	r2,r4
   40a7c:	2809883a 	mov	r4,r5
   40a80:	3007883a 	mov	r3,r6
   40a84:	e1fff615 	stw	r7,-40(fp)
   40a88:	e0bff905 	stb	r2,-28(fp)
   40a8c:	2005883a 	mov	r2,r4
   40a90:	e0bff805 	stb	r2,-32(fp)
   40a94:	1805883a 	mov	r2,r3
   40a98:	e0bff705 	stb	r2,-36(fp)
    alt_u32 read_reg[2] = {0};
   40a9c:	0005883a 	mov	r2,zero
   40aa0:	0007883a 	mov	r3,zero
   40aa4:	e0bffc15 	stw	r2,-16(fp)
   40aa8:	e0fffd15 	stw	r3,-12(fp)
    alt_u8 data_temp[8] = {0};
   40aac:	e03ffa15 	stw	zero,-24(fp)
   40ab0:	e03ffb15 	stw	zero,-20(fp)

    //write to address register of i2c mm if
    //6..0: 7-bits i2c device addres
    //15..8: 8 bits register address of i2c device
    IOWR(I2C_AVALON_MM_IF_0_BASE,ADDR_REG, i2c_reg_addr << 8 | i2c_device_addr);
   40ab4:	e0bff803 	ldbu	r2,-32(fp)
   40ab8:	1006923a 	slli	r3,r2,8
   40abc:	e0bff903 	ldbu	r2,-28(fp)
   40ac0:	1886b03a 	or	r3,r3,r2
   40ac4:	00800234 	movhi	r2,8
   40ac8:	10c40135 	stwio	r3,4100(r2)
    //Write to i2c mm if ctrl register to enable i2c command
    IOWR(I2C_AVALON_MM_IF_0_BASE,CTRL_REG, CMD_ENA_WR);
   40acc:	00c00044 	movi	r3,1
   40ad0:	00800234 	movhi	r2,8
   40ad4:	10c40035 	stwio	r3,4096(r2)
    //Check for busy in the ctrl register (i2c busy or mm if busy), and continue when no longer busy
    while(check_mm_if_busy()) continue;
   40ad8:	00000106 	br	40ae0 <read_from_i2c_device+0x78>
   40adc:	0001883a 	nop
   40ae0:	00409900 	call	40990 <check_mm_if_busy>
   40ae4:	103ffd1e 	bne	r2,zero,40adc <read_from_i2c_device+0x74>

    //no_bytes to be read from the i2c device

    IOWR(I2C_AVALON_MM_IF_0_BASE,CTRL_REG,no_bytes << 2 | CMD_ENA_RD);
   40ae8:	e0bff703 	ldbu	r2,-36(fp)
   40aec:	100490ba 	slli	r2,r2,2
   40af0:	10c000d4 	ori	r3,r2,3
   40af4:	00800234 	movhi	r2,8
   40af8:	10c40035 	stwio	r3,4096(r2)
    while(check_mm_if_busy()) continue;
   40afc:	00000106 	br	40b04 <read_from_i2c_device+0x9c>
   40b00:	0001883a 	nop
   40b04:	00409900 	call	40990 <check_mm_if_busy>
   40b08:	103ffd1e 	bne	r2,zero,40b00 <read_from_i2c_device+0x98>

    read_reg[0] = IORD(I2C_AVALON_MM_IF_0_BASE,READ_REG_LOW);
   40b0c:	00800234 	movhi	r2,8
   40b10:	10840337 	ldwio	r2,4108(r2)
   40b14:	e0bffc15 	stw	r2,-16(fp)
    read_reg[1] = IORD(I2C_AVALON_MM_IF_0_BASE,READ_REG_HIGH);
   40b18:	00800234 	movhi	r2,8
   40b1c:	10840437 	ldwio	r2,4112(r2)
   40b20:	e0bffd15 	stw	r2,-12(fp)

    //Move data in to byte array
    for(int i = 0; i<4; i++) {
   40b24:	e03fff15 	stw	zero,-4(fp)
   40b28:	00001306 	br	40b78 <read_from_i2c_device+0x110>
        data_temp[i] = (read_reg[0] >> i*8) & 0xff;
   40b2c:	e0fffc17 	ldw	r3,-16(fp)
   40b30:	e0bfff17 	ldw	r2,-4(fp)
   40b34:	100490fa 	slli	r2,r2,3
   40b38:	1884d83a 	srl	r2,r3,r2
   40b3c:	1007883a 	mov	r3,r2
   40b40:	e0bfff17 	ldw	r2,-4(fp)
   40b44:	e085883a 	add	r2,fp,r2
   40b48:	10fffa05 	stb	r3,-24(r2)
        data_temp[i+4] = (read_reg[1] >> i*8) & 0xff;
   40b4c:	e0fffd17 	ldw	r3,-12(fp)
   40b50:	e0bfff17 	ldw	r2,-4(fp)
   40b54:	100490fa 	slli	r2,r2,3
   40b58:	1886d83a 	srl	r3,r3,r2
   40b5c:	e0bfff17 	ldw	r2,-4(fp)
   40b60:	10800104 	addi	r2,r2,4
   40b64:	e085883a 	add	r2,fp,r2
   40b68:	10fffa05 	stb	r3,-24(r2)
    for(int i = 0; i<4; i++) {
   40b6c:	e0bfff17 	ldw	r2,-4(fp)
   40b70:	10800044 	addi	r2,r2,1
   40b74:	e0bfff15 	stw	r2,-4(fp)
   40b78:	e0bfff17 	ldw	r2,-4(fp)
   40b7c:	10800110 	cmplti	r2,r2,4
   40b80:	103fea1e 	bne	r2,zero,40b2c <read_from_i2c_device+0xc4>
    }

    //reverse byte array to have first received byte in the lowest array position
    for(int i = 0; i<no_bytes; i++) {
   40b84:	e03ffe15 	stw	zero,-8(fp)
   40b88:	00000d06 	br	40bc0 <read_from_i2c_device+0x158>
        data[i] = data_temp[(no_bytes-1)-i];
   40b8c:	e0bff703 	ldbu	r2,-36(fp)
   40b90:	10ffffc4 	addi	r3,r2,-1
   40b94:	e0bffe17 	ldw	r2,-8(fp)
   40b98:	1887c83a 	sub	r3,r3,r2
   40b9c:	e0bffe17 	ldw	r2,-8(fp)
   40ba0:	e13ff617 	ldw	r4,-40(fp)
   40ba4:	2085883a 	add	r2,r4,r2
   40ba8:	e0c7883a 	add	r3,fp,r3
   40bac:	18fffa03 	ldbu	r3,-24(r3)
   40bb0:	10c00005 	stb	r3,0(r2)
    for(int i = 0; i<no_bytes; i++) {
   40bb4:	e0bffe17 	ldw	r2,-8(fp)
   40bb8:	10800044 	addi	r2,r2,1
   40bbc:	e0bffe15 	stw	r2,-8(fp)
   40bc0:	e0bff703 	ldbu	r2,-36(fp)
   40bc4:	e0fffe17 	ldw	r3,-8(fp)
   40bc8:	18bff016 	blt	r3,r2,40b8c <read_from_i2c_device+0x124>
     // printf("i: %d, no_bytes: %d\n" ,i,(no_bytes-1)-i);
    }

}
   40bcc:	0001883a 	nop
   40bd0:	0001883a 	nop
   40bd4:	e037883a 	mov	sp,fp
   40bd8:	dfc00117 	ldw	ra,4(sp)
   40bdc:	df000017 	ldw	fp,0(sp)
   40be0:	dec00204 	addi	sp,sp,8
   40be4:	f800283a 	ret

00040be8 <__divsf3>:
   40be8:	defff604 	addi	sp,sp,-40
   40bec:	2006d5fa 	srli	r3,r4,23
   40bf0:	dcc00415 	stw	r19,16(sp)
   40bf4:	2026d7fa 	srli	r19,r4,31
   40bf8:	00802034 	movhi	r2,128
   40bfc:	dd000515 	stw	r20,20(sp)
   40c00:	dc400215 	stw	r17,8(sp)
   40c04:	10bfffc4 	addi	r2,r2,-1
   40c08:	dfc00915 	stw	ra,36(sp)
   40c0c:	ddc00815 	stw	r23,32(sp)
   40c10:	dd800715 	stw	r22,28(sp)
   40c14:	dd400615 	stw	r21,24(sp)
   40c18:	dc800315 	stw	r18,12(sp)
   40c1c:	dc000115 	stw	r16,4(sp)
   40c20:	18c03fcc 	andi	r3,r3,255
   40c24:	1128703a 	and	r20,r2,r4
   40c28:	9823883a 	mov	r17,r19
   40c2c:	18004d26 	beq	r3,zero,40d64 <__divsf3+0x17c>
   40c30:	18803fe0 	cmpeqi	r2,r3,255
   40c34:	1000501e 	bne	r2,zero,40d78 <__divsf3+0x190>
   40c38:	a00490fa 	slli	r2,r20,3
   40c3c:	1d7fe044 	addi	r21,r3,-127
   40c40:	0021883a 	mov	r16,zero
   40c44:	15010034 	orhi	r20,r2,1024
   40c48:	002f883a 	mov	r23,zero
   40c4c:	2806d5fa 	srli	r3,r5,23
   40c50:	01002034 	movhi	r4,128
   40c54:	213fffc4 	addi	r4,r4,-1
   40c58:	18c03fcc 	andi	r3,r3,255
   40c5c:	282cd7fa 	srli	r22,r5,31
   40c60:	2164703a 	and	r18,r4,r5
   40c64:	18002426 	beq	r3,zero,40cf8 <__divsf3+0x110>
   40c68:	18803fe0 	cmpeqi	r2,r3,255
   40c6c:	10001e1e 	bne	r2,zero,40ce8 <__divsf3+0x100>
   40c70:	900890fa 	slli	r4,r18,3
   40c74:	18ffe044 	addi	r3,r3,-127
   40c78:	000b883a 	mov	r5,zero
   40c7c:	24810034 	orhi	r18,r4,1024
   40c80:	9da6f03a 	xor	r19,r19,r22
   40c84:	80800428 	cmpgeui	r2,r16,16
   40c88:	9809883a 	mov	r4,r19
   40c8c:	a8ebc83a 	sub	r21,r21,r3
   40c90:	1000b11e 	bne	r2,zero,40f58 <__divsf3+0x370>
   40c94:	802090ba 	slli	r16,r16,2
   40c98:	00800134 	movhi	r2,4
   40c9c:	8085883a 	add	r2,r16,r2
   40ca0:	10832a17 	ldw	r2,3240(r2)
   40ca4:	1000683a 	jmp	r2
   40ca8:	00040f58 	cmpnei	zero,zero,4157
   40cac:	00040df8 	rdprs	zero,zero,4151
   40cb0:	00040e44 	movi	zero,4153
   40cb4:	00040e78 	rdprs	zero,zero,4153
   40cb8:	00040e44 	movi	zero,4153
   40cbc:	00040ed0 	cmplti	zero,zero,4155
   40cc0:	00040e44 	movi	zero,4153
   40cc4:	00040e78 	rdprs	zero,zero,4153
   40cc8:	00040df8 	rdprs	zero,zero,4151
   40ccc:	00040df8 	rdprs	zero,zero,4151
   40cd0:	00040ed0 	cmplti	zero,zero,4155
   40cd4:	00040e78 	rdprs	zero,zero,4153
   40cd8:	00040e54 	movui	zero,4153
   40cdc:	00040e54 	movui	zero,4153
   40ce0:	00040e54 	movui	zero,4153
   40ce4:	00040ee4 	muli	zero,zero,4155
   40ce8:	90003f1e 	bne	r18,zero,40de8 <__divsf3+0x200>
   40cec:	ad7fc044 	addi	r21,r21,-255
   40cf0:	00800084 	movi	r2,2
   40cf4:	00000206 	br	40d00 <__divsf3+0x118>
   40cf8:	9000331e 	bne	r18,zero,40dc8 <__divsf3+0x1e0>
   40cfc:	00800044 	movi	r2,1
   40d00:	1420b03a 	or	r16,r2,r16
   40d04:	9da6f03a 	xor	r19,r19,r22
   40d08:	80c003e8 	cmpgeui	r3,r16,15
   40d0c:	9809883a 	mov	r4,r19
   40d10:	1800391e 	bne	r3,zero,40df8 <__divsf3+0x210>
   40d14:	802090ba 	slli	r16,r16,2
   40d18:	00c00134 	movhi	r3,4
   40d1c:	80c7883a 	add	r3,r16,r3
   40d20:	18c34a17 	ldw	r3,3368(r3)
   40d24:	1800683a 	jmp	r3
   40d28:	00040df8 	rdprs	zero,zero,4151
   40d2c:	00040df8 	rdprs	zero,zero,4151
   40d30:	00040e44 	movi	zero,4153
   40d34:	00040fb4 	movhi	zero,4158
   40d38:	00040e44 	movi	zero,4153
   40d3c:	00040ed0 	cmplti	zero,zero,4155
   40d40:	00040e44 	movi	zero,4153
   40d44:	00040fb4 	movhi	zero,4158
   40d48:	00040df8 	rdprs	zero,zero,4151
   40d4c:	00040df8 	rdprs	zero,zero,4151
   40d50:	00040ed0 	cmplti	zero,zero,4155
   40d54:	00040fb4 	movhi	zero,4158
   40d58:	00040e54 	movui	zero,4153
   40d5c:	00040e54 	movui	zero,4153
   40d60:	00040e54 	movui	zero,4153
   40d64:	a0000d1e 	bne	r20,zero,40d9c <__divsf3+0x1b4>
   40d68:	04000104 	movi	r16,4
   40d6c:	002b883a 	mov	r21,zero
   40d70:	05c00044 	movi	r23,1
   40d74:	003fb506 	br	40c4c <__divsf3+0x64>
   40d78:	a000041e 	bne	r20,zero,40d8c <__divsf3+0x1a4>
   40d7c:	04000204 	movi	r16,8
   40d80:	05403fc4 	movi	r21,255
   40d84:	05c00084 	movi	r23,2
   40d88:	003fb006 	br	40c4c <__divsf3+0x64>
   40d8c:	04000304 	movi	r16,12
   40d90:	05403fc4 	movi	r21,255
   40d94:	05c000c4 	movi	r23,3
   40d98:	003fac06 	br	40c4c <__divsf3+0x64>
   40d9c:	a009883a 	mov	r4,r20
   40da0:	d9400015 	stw	r5,0(sp)
   40da4:	00417180 	call	41718 <__clzsi2>
   40da8:	10fffec4 	addi	r3,r2,-5
   40dac:	a0e8983a 	sll	r20,r20,r3
   40db0:	00ffe284 	movi	r3,-118
   40db4:	d9400017 	ldw	r5,0(sp)
   40db8:	18abc83a 	sub	r21,r3,r2
   40dbc:	0021883a 	mov	r16,zero
   40dc0:	002f883a 	mov	r23,zero
   40dc4:	003fa106 	br	40c4c <__divsf3+0x64>
   40dc8:	9009883a 	mov	r4,r18
   40dcc:	00417180 	call	41718 <__clzsi2>
   40dd0:	10fffec4 	addi	r3,r2,-5
   40dd4:	90e4983a 	sll	r18,r18,r3
   40dd8:	00ffe284 	movi	r3,-118
   40ddc:	1887c83a 	sub	r3,r3,r2
   40de0:	000b883a 	mov	r5,zero
   40de4:	003fa606 	br	40c80 <__divsf3+0x98>
   40de8:	840000d4 	ori	r16,r16,3
   40dec:	00c03fc4 	movi	r3,255
   40df0:	014000c4 	movi	r5,3
   40df4:	003fa206 	br	40c80 <__divsf3+0x98>
   40df8:	9823883a 	mov	r17,r19
   40dfc:	00ffffc4 	movi	r3,-1
   40e00:	0009883a 	mov	r4,zero
   40e04:	18803fcc 	andi	r2,r3,255
   40e08:	100495fa 	slli	r2,r2,23
   40e0c:	882297fa 	slli	r17,r17,31
   40e10:	1104b03a 	or	r2,r2,r4
   40e14:	1444b03a 	or	r2,r2,r17
   40e18:	dfc00917 	ldw	ra,36(sp)
   40e1c:	ddc00817 	ldw	r23,32(sp)
   40e20:	dd800717 	ldw	r22,28(sp)
   40e24:	dd400617 	ldw	r21,24(sp)
   40e28:	dd000517 	ldw	r20,20(sp)
   40e2c:	dcc00417 	ldw	r19,16(sp)
   40e30:	dc800317 	ldw	r18,12(sp)
   40e34:	dc400217 	ldw	r17,8(sp)
   40e38:	dc000117 	ldw	r16,4(sp)
   40e3c:	dec00a04 	addi	sp,sp,40
   40e40:	f800283a 	ret
   40e44:	2023883a 	mov	r17,r4
   40e48:	0007883a 	mov	r3,zero
   40e4c:	0009883a 	mov	r4,zero
   40e50:	003fec06 	br	40e04 <__divsf3+0x21c>
   40e54:	b88000a0 	cmpeqi	r2,r23,2
   40e58:	103fe81e 	bne	r2,zero,40dfc <__divsf3+0x214>
   40e5c:	b88000e0 	cmpeqi	r2,r23,3
   40e60:	1000241e 	bne	r2,zero,40ef4 <__divsf3+0x30c>
   40e64:	bdc00060 	cmpeqi	r23,r23,1
   40e68:	b8006126 	beq	r23,zero,40ff0 <__divsf3+0x408>
   40e6c:	0007883a 	mov	r3,zero
   40e70:	0009883a 	mov	r4,zero
   40e74:	003fe306 	br	40e04 <__divsf3+0x21c>
   40e78:	294000e0 	cmpeqi	r5,r5,3
   40e7c:	b023883a 	mov	r17,r22
   40e80:	28005d1e 	bne	r5,zero,40ff8 <__divsf3+0x410>
   40e84:	a8c01fc4 	addi	r3,r21,127
   40e88:	00c01f0e 	bge	zero,r3,40f08 <__divsf3+0x320>
   40e8c:	908001cc 	andi	r2,r18,7
   40e90:	10000426 	beq	r2,zero,40ea4 <__divsf3+0x2bc>
   40e94:	908003cc 	andi	r2,r18,15
   40e98:	10800120 	cmpeqi	r2,r2,4
   40e9c:	1000011e 	bne	r2,zero,40ea4 <__divsf3+0x2bc>
   40ea0:	94800104 	addi	r18,r18,4
   40ea4:	9082002c 	andhi	r2,r18,2048
   40ea8:	10000426 	beq	r2,zero,40ebc <__divsf3+0x2d4>
   40eac:	00be0034 	movhi	r2,63488
   40eb0:	10bfffc4 	addi	r2,r2,-1
   40eb4:	90a4703a 	and	r18,r18,r2
   40eb8:	a8c02004 	addi	r3,r21,128
   40ebc:	18803fc8 	cmpgei	r2,r3,255
   40ec0:	103fce1e 	bne	r2,zero,40dfc <__divsf3+0x214>
   40ec4:	900891ba 	slli	r4,r18,6
   40ec8:	2008d27a 	srli	r4,r4,9
   40ecc:	003fcd06 	br	40e04 <__divsf3+0x21c>
   40ed0:	01002034 	movhi	r4,128
   40ed4:	0023883a 	mov	r17,zero
   40ed8:	213fffc4 	addi	r4,r4,-1
   40edc:	00ffffc4 	movi	r3,-1
   40ee0:	003fc806 	br	40e04 <__divsf3+0x21c>
   40ee4:	a080102c 	andhi	r2,r20,64
   40ee8:	10000226 	beq	r2,zero,40ef4 <__divsf3+0x30c>
   40eec:	9080102c 	andhi	r2,r18,64
   40ef0:	10003926 	beq	r2,zero,40fd8 <__divsf3+0x3f0>
   40ef4:	00802034 	movhi	r2,128
   40ef8:	a1001034 	orhi	r4,r20,64
   40efc:	10bfffc4 	addi	r2,r2,-1
   40f00:	2088703a 	and	r4,r4,r2
   40f04:	003ff506 	br	40edc <__divsf3+0x2f4>
   40f08:	00800044 	movi	r2,1
   40f0c:	10c5c83a 	sub	r2,r2,r3
   40f10:	10c00710 	cmplti	r3,r2,28
   40f14:	183fd526 	beq	r3,zero,40e6c <__divsf3+0x284>
   40f18:	a8c02784 	addi	r3,r21,158
   40f1c:	90c6983a 	sll	r3,r18,r3
   40f20:	9088d83a 	srl	r4,r18,r2
   40f24:	1806c03a 	cmpne	r3,r3,zero
   40f28:	20c8b03a 	or	r4,r4,r3
   40f2c:	208001cc 	andi	r2,r4,7
   40f30:	10000426 	beq	r2,zero,40f44 <__divsf3+0x35c>
   40f34:	208003cc 	andi	r2,r4,15
   40f38:	10800120 	cmpeqi	r2,r2,4
   40f3c:	1000011e 	bne	r2,zero,40f44 <__divsf3+0x35c>
   40f40:	21000104 	addi	r4,r4,4
   40f44:	2081002c 	andhi	r2,r4,1024
   40f48:	10001f26 	beq	r2,zero,40fc8 <__divsf3+0x3e0>
   40f4c:	00c00044 	movi	r3,1
   40f50:	0009883a 	mov	r4,zero
   40f54:	003fab06 	br	40e04 <__divsf3+0x21c>
   40f58:	a004917a 	slli	r2,r20,5
   40f5c:	900c917a 	slli	r6,r18,5
   40f60:	1180102e 	bgeu	r2,r6,40fa4 <__divsf3+0x3bc>
   40f64:	ad7fffc4 	addi	r21,r21,-1
   40f68:	014006c4 	movi	r5,27
   40f6c:	0009883a 	mov	r4,zero
   40f70:	1007883a 	mov	r3,r2
   40f74:	297fffc4 	addi	r5,r5,-1
   40f78:	1085883a 	add	r2,r2,r2
   40f7c:	2109883a 	add	r4,r4,r4
   40f80:	18000116 	blt	r3,zero,40f88 <__divsf3+0x3a0>
   40f84:	11800236 	bltu	r2,r6,40f90 <__divsf3+0x3a8>
   40f88:	1185c83a 	sub	r2,r2,r6
   40f8c:	21000054 	ori	r4,r4,1
   40f90:	283ff71e 	bne	r5,zero,40f70 <__divsf3+0x388>
   40f94:	1004c03a 	cmpne	r2,r2,zero
   40f98:	1124b03a 	or	r18,r2,r4
   40f9c:	9823883a 	mov	r17,r19
   40fa0:	003fb806 	br	40e84 <__divsf3+0x29c>
   40fa4:	1185c83a 	sub	r2,r2,r6
   40fa8:	01400684 	movi	r5,26
   40fac:	01000044 	movi	r4,1
   40fb0:	003fef06 	br	40f70 <__divsf3+0x388>
   40fb4:	108000a0 	cmpeqi	r2,r2,2
   40fb8:	0087c83a 	sub	r3,zero,r2
   40fbc:	b023883a 	mov	r17,r22
   40fc0:	0009883a 	mov	r4,zero
   40fc4:	003f8f06 	br	40e04 <__divsf3+0x21c>
   40fc8:	200891ba 	slli	r4,r4,6
   40fcc:	0007883a 	mov	r3,zero
   40fd0:	2008d27a 	srli	r4,r4,9
   40fd4:	003f8b06 	br	40e04 <__divsf3+0x21c>
   40fd8:	00802034 	movhi	r2,128
   40fdc:	91001034 	orhi	r4,r18,64
   40fe0:	10bfffc4 	addi	r2,r2,-1
   40fe4:	2088703a 	and	r4,r4,r2
   40fe8:	b023883a 	mov	r17,r22
   40fec:	003fbb06 	br	40edc <__divsf3+0x2f4>
   40ff0:	a025883a 	mov	r18,r20
   40ff4:	003fa306 	br	40e84 <__divsf3+0x29c>
   40ff8:	9029883a 	mov	r20,r18
   40ffc:	003fbd06 	br	40ef4 <__divsf3+0x30c>

00041000 <__mulsf3>:
   41000:	defff604 	addi	sp,sp,-40
   41004:	2004d5fa 	srli	r2,r4,23
   41008:	dd400615 	stw	r21,24(sp)
   4100c:	202ad7fa 	srli	r21,r4,31
   41010:	00c02034 	movhi	r3,128
   41014:	dd000515 	stw	r20,20(sp)
   41018:	dcc00415 	stw	r19,16(sp)
   4101c:	18ffffc4 	addi	r3,r3,-1
   41020:	dfc00915 	stw	ra,36(sp)
   41024:	ddc00815 	stw	r23,32(sp)
   41028:	dd800715 	stw	r22,28(sp)
   4102c:	dc800315 	stw	r18,12(sp)
   41030:	dc400215 	stw	r17,8(sp)
   41034:	dc000115 	stw	r16,4(sp)
   41038:	10803fcc 	andi	r2,r2,255
   4103c:	1928703a 	and	r20,r3,r4
   41040:	a827883a 	mov	r19,r21
   41044:	10006c26 	beq	r2,zero,411f8 <__mulsf3+0x1f8>
   41048:	10c03fe0 	cmpeqi	r3,r2,255
   4104c:	18006f1e 	bne	r3,zero,4120c <__mulsf3+0x20c>
   41050:	a00890fa 	slli	r4,r20,3
   41054:	14bfe044 	addi	r18,r2,-127
   41058:	0023883a 	mov	r17,zero
   4105c:	25010034 	orhi	r20,r4,1024
   41060:	002f883a 	mov	r23,zero
   41064:	2804d5fa 	srli	r2,r5,23
   41068:	04002034 	movhi	r16,128
   4106c:	843fffc4 	addi	r16,r16,-1
   41070:	10803fcc 	andi	r2,r2,255
   41074:	282cd7fa 	srli	r22,r5,31
   41078:	8160703a 	and	r16,r16,r5
   4107c:	10005626 	beq	r2,zero,411d8 <__mulsf3+0x1d8>
   41080:	10c03fe0 	cmpeqi	r3,r2,255
   41084:	1800241e 	bne	r3,zero,41118 <__mulsf3+0x118>
   41088:	802090fa 	slli	r16,r16,3
   4108c:	10bfe044 	addi	r2,r2,-127
   41090:	1485883a 	add	r2,r2,r18
   41094:	88c002c8 	cmpgei	r3,r17,11
   41098:	84010034 	orhi	r16,r16,1024
   4109c:	0009883a 	mov	r4,zero
   410a0:	14800044 	addi	r18,r2,1
   410a4:	1800291e 	bne	r3,zero,4114c <__mulsf3+0x14c>
   410a8:	b566f03a 	xor	r19,r22,r21
   410ac:	88c000c8 	cmpgei	r3,r17,3
   410b0:	1800221e 	bne	r3,zero,4113c <__mulsf3+0x13c>
   410b4:	8c7fffc4 	addi	r17,r17,-1
   410b8:	8c4000a8 	cmpgeui	r17,r17,2
   410bc:	8800951e 	bne	r17,zero,41314 <__mulsf3+0x314>
   410c0:	208000a0 	cmpeqi	r2,r4,2
   410c4:	1000561e 	bne	r2,zero,41220 <__mulsf3+0x220>
   410c8:	21000060 	cmpeqi	r4,r4,1
   410cc:	20002726 	beq	r4,zero,4116c <__mulsf3+0x16c>
   410d0:	0007883a 	mov	r3,zero
   410d4:	0009883a 	mov	r4,zero
   410d8:	18803fcc 	andi	r2,r3,255
   410dc:	100495fa 	slli	r2,r2,23
   410e0:	982697fa 	slli	r19,r19,31
   410e4:	1104b03a 	or	r2,r2,r4
   410e8:	14c4b03a 	or	r2,r2,r19
   410ec:	dfc00917 	ldw	ra,36(sp)
   410f0:	ddc00817 	ldw	r23,32(sp)
   410f4:	dd800717 	ldw	r22,28(sp)
   410f8:	dd400617 	ldw	r21,24(sp)
   410fc:	dd000517 	ldw	r20,20(sp)
   41100:	dcc00417 	ldw	r19,16(sp)
   41104:	dc800317 	ldw	r18,12(sp)
   41108:	dc400217 	ldw	r17,8(sp)
   4110c:	dc000117 	ldw	r16,4(sp)
   41110:	dec00a04 	addi	sp,sp,40
   41114:	f800283a 	ret
   41118:	90803fc4 	addi	r2,r18,255
   4111c:	80004826 	beq	r16,zero,41240 <__mulsf3+0x240>
   41120:	8c4000d4 	ori	r17,r17,3
   41124:	88c002c8 	cmpgei	r3,r17,11
   41128:	b56af03a 	xor	r21,r22,r21
   4112c:	94804004 	addi	r18,r18,256
   41130:	1800a41e 	bne	r3,zero,413c4 <__mulsf3+0x3c4>
   41134:	a827883a 	mov	r19,r21
   41138:	010000c4 	movi	r4,3
   4113c:	00c00044 	movi	r3,1
   41140:	1c46983a 	sll	r3,r3,r17
   41144:	19414c0c 	andi	r5,r3,1328
   41148:	28001b26 	beq	r5,zero,411b8 <__mulsf3+0x1b8>
   4114c:	b88000a0 	cmpeqi	r2,r23,2
   41150:	1000331e 	bne	r2,zero,41220 <__mulsf3+0x220>
   41154:	b88000e0 	cmpeqi	r2,r23,3
   41158:	10008f1e 	bne	r2,zero,41398 <__mulsf3+0x398>
   4115c:	b809883a 	mov	r4,r23
   41160:	21000060 	cmpeqi	r4,r4,1
   41164:	a021883a 	mov	r16,r20
   41168:	203fd91e 	bne	r4,zero,410d0 <__mulsf3+0xd0>
   4116c:	90c01fc4 	addi	r3,r18,127
   41170:	00c0540e 	bge	zero,r3,412c4 <__mulsf3+0x2c4>
   41174:	808001cc 	andi	r2,r16,7
   41178:	10000426 	beq	r2,zero,4118c <__mulsf3+0x18c>
   4117c:	808003cc 	andi	r2,r16,15
   41180:	10800120 	cmpeqi	r2,r2,4
   41184:	1000011e 	bne	r2,zero,4118c <__mulsf3+0x18c>
   41188:	84000104 	addi	r16,r16,4
   4118c:	8082002c 	andhi	r2,r16,2048
   41190:	10000426 	beq	r2,zero,411a4 <__mulsf3+0x1a4>
   41194:	00be0034 	movhi	r2,63488
   41198:	10bfffc4 	addi	r2,r2,-1
   4119c:	80a0703a 	and	r16,r16,r2
   411a0:	90c02004 	addi	r3,r18,128
   411a4:	18803fc8 	cmpgei	r2,r3,255
   411a8:	10001d1e 	bne	r2,zero,41220 <__mulsf3+0x220>
   411ac:	800891ba 	slli	r4,r16,6
   411b0:	2008d27a 	srli	r4,r4,9
   411b4:	003fc806 	br	410d8 <__mulsf3+0xd8>
   411b8:	1940900c 	andi	r5,r3,576
   411bc:	28001b1e 	bne	r5,zero,4122c <__mulsf3+0x22c>
   411c0:	18c0220c 	andi	r3,r3,136
   411c4:	18005326 	beq	r3,zero,41314 <__mulsf3+0x314>
   411c8:	b027883a 	mov	r19,r22
   411cc:	8029883a 	mov	r20,r16
   411d0:	202f883a 	mov	r23,r4
   411d4:	003fdd06 	br	4114c <__mulsf3+0x14c>
   411d8:	80002f1e 	bne	r16,zero,41298 <__mulsf3+0x298>
   411dc:	8c400054 	ori	r17,r17,1
   411e0:	9005883a 	mov	r2,r18
   411e4:	88c002c8 	cmpgei	r3,r17,11
   411e8:	01000044 	movi	r4,1
   411ec:	14800044 	addi	r18,r2,1
   411f0:	183fad26 	beq	r3,zero,410a8 <__mulsf3+0xa8>
   411f4:	003fd506 	br	4114c <__mulsf3+0x14c>
   411f8:	a0001c1e 	bne	r20,zero,4126c <__mulsf3+0x26c>
   411fc:	04400104 	movi	r17,4
   41200:	0025883a 	mov	r18,zero
   41204:	05c00044 	movi	r23,1
   41208:	003f9606 	br	41064 <__mulsf3+0x64>
   4120c:	a000131e 	bne	r20,zero,4125c <__mulsf3+0x25c>
   41210:	04400204 	movi	r17,8
   41214:	04803fc4 	movi	r18,255
   41218:	05c00084 	movi	r23,2
   4121c:	003f9106 	br	41064 <__mulsf3+0x64>
   41220:	00ffffc4 	movi	r3,-1
   41224:	0009883a 	mov	r4,zero
   41228:	003fab06 	br	410d8 <__mulsf3+0xd8>
   4122c:	01002034 	movhi	r4,128
   41230:	0027883a 	mov	r19,zero
   41234:	213fffc4 	addi	r4,r4,-1
   41238:	00ffffc4 	movi	r3,-1
   4123c:	003fa606 	br	410d8 <__mulsf3+0xd8>
   41240:	8c400094 	ori	r17,r17,2
   41244:	88c002c8 	cmpgei	r3,r17,11
   41248:	94804004 	addi	r18,r18,256
   4124c:	183fbf1e 	bne	r3,zero,4114c <__mulsf3+0x14c>
   41250:	b566f03a 	xor	r19,r22,r21
   41254:	01000084 	movi	r4,2
   41258:	003f9406 	br	410ac <__mulsf3+0xac>
   4125c:	04400304 	movi	r17,12
   41260:	04803fc4 	movi	r18,255
   41264:	05c000c4 	movi	r23,3
   41268:	003f7e06 	br	41064 <__mulsf3+0x64>
   4126c:	a009883a 	mov	r4,r20
   41270:	d9400015 	stw	r5,0(sp)
   41274:	00417180 	call	41718 <__clzsi2>
   41278:	10fffec4 	addi	r3,r2,-5
   4127c:	04bfe284 	movi	r18,-118
   41280:	a0e8983a 	sll	r20,r20,r3
   41284:	d9400017 	ldw	r5,0(sp)
   41288:	90a5c83a 	sub	r18,r18,r2
   4128c:	0023883a 	mov	r17,zero
   41290:	002f883a 	mov	r23,zero
   41294:	003f7306 	br	41064 <__mulsf3+0x64>
   41298:	8009883a 	mov	r4,r16
   4129c:	00417180 	call	41718 <__clzsi2>
   412a0:	10fffec4 	addi	r3,r2,-5
   412a4:	9085c83a 	sub	r2,r18,r2
   412a8:	80e0983a 	sll	r16,r16,r3
   412ac:	10bfe284 	addi	r2,r2,-118
   412b0:	88c002c8 	cmpgei	r3,r17,11
   412b4:	0009883a 	mov	r4,zero
   412b8:	14800044 	addi	r18,r2,1
   412bc:	183f7a26 	beq	r3,zero,410a8 <__mulsf3+0xa8>
   412c0:	003fa206 	br	4114c <__mulsf3+0x14c>
   412c4:	01000044 	movi	r4,1
   412c8:	20c7c83a 	sub	r3,r4,r3
   412cc:	18800708 	cmpgei	r2,r3,28
   412d0:	103f7f1e 	bne	r2,zero,410d0 <__mulsf3+0xd0>
   412d4:	94802784 	addi	r18,r18,158
   412d8:	84a4983a 	sll	r18,r16,r18
   412dc:	80c6d83a 	srl	r3,r16,r3
   412e0:	9024c03a 	cmpne	r18,r18,zero
   412e4:	1c86b03a 	or	r3,r3,r18
   412e8:	188001cc 	andi	r2,r3,7
   412ec:	10000426 	beq	r2,zero,41300 <__mulsf3+0x300>
   412f0:	188003cc 	andi	r2,r3,15
   412f4:	10800120 	cmpeqi	r2,r2,4
   412f8:	1000011e 	bne	r2,zero,41300 <__mulsf3+0x300>
   412fc:	18c00104 	addi	r3,r3,4
   41300:	1881002c 	andhi	r2,r3,1024
   41304:	10002b26 	beq	r2,zero,413b4 <__mulsf3+0x3b4>
   41308:	00c00044 	movi	r3,1
   4130c:	0009883a 	mov	r4,zero
   41310:	003f7106 	br	410d8 <__mulsf3+0xd8>
   41314:	a00ad43a 	srli	r5,r20,16
   41318:	8010d43a 	srli	r8,r16,16
   4131c:	a13fffcc 	andi	r4,r20,65535
   41320:	81bfffcc 	andi	r6,r16,65535
   41324:	218f383a 	mul	r7,r4,r6
   41328:	4129383a 	mul	r20,r8,r4
   4132c:	298d383a 	mul	r6,r5,r6
   41330:	3806d43a 	srli	r3,r7,16
   41334:	2a0b383a 	mul	r5,r5,r8
   41338:	a1a9883a 	add	r20,r20,r6
   4133c:	1d07883a 	add	r3,r3,r20
   41340:	1980022e 	bgeu	r3,r6,4134c <__mulsf3+0x34c>
   41344:	01000074 	movhi	r4,1
   41348:	290b883a 	add	r5,r5,r4
   4134c:	1808943a 	slli	r4,r3,16
   41350:	1820d43a 	srli	r16,r3,16
   41354:	39ffffcc 	andi	r7,r7,65535
   41358:	21c7883a 	add	r3,r4,r7
   4135c:	180891ba 	slli	r4,r3,6
   41360:	8161883a 	add	r16,r16,r5
   41364:	802091ba 	slli	r16,r16,6
   41368:	1806d6ba 	srli	r3,r3,26
   4136c:	2008c03a 	cmpne	r4,r4,zero
   41370:	8142002c 	andhi	r5,r16,2048
   41374:	20c6b03a 	or	r3,r4,r3
   41378:	80e0b03a 	or	r16,r16,r3
   4137c:	28000b26 	beq	r5,zero,413ac <__mulsf3+0x3ac>
   41380:	8004d07a 	srli	r2,r16,1
   41384:	8400004c 	andi	r16,r16,1
   41388:	1420b03a 	or	r16,r2,r16
   4138c:	003f7706 	br	4116c <__mulsf3+0x16c>
   41390:	b027883a 	mov	r19,r22
   41394:	8029883a 	mov	r20,r16
   41398:	00802034 	movhi	r2,128
   4139c:	a1001034 	orhi	r4,r20,64
   413a0:	10bfffc4 	addi	r2,r2,-1
   413a4:	2088703a 	and	r4,r4,r2
   413a8:	003fa306 	br	41238 <__mulsf3+0x238>
   413ac:	1025883a 	mov	r18,r2
   413b0:	003f6e06 	br	4116c <__mulsf3+0x16c>
   413b4:	180891ba 	slli	r4,r3,6
   413b8:	0007883a 	mov	r3,zero
   413bc:	2008d27a 	srli	r4,r4,9
   413c0:	003f4506 	br	410d8 <__mulsf3+0xd8>
   413c4:	8c4003e0 	cmpeqi	r17,r17,15
   413c8:	883ff126 	beq	r17,zero,41390 <__mulsf3+0x390>
   413cc:	a080102c 	andhi	r2,r20,64
   413d0:	103ff126 	beq	r2,zero,41398 <__mulsf3+0x398>
   413d4:	2940102c 	andhi	r5,r5,64
   413d8:	283fef1e 	bne	r5,zero,41398 <__mulsf3+0x398>
   413dc:	81001034 	orhi	r4,r16,64
   413e0:	b027883a 	mov	r19,r22
   413e4:	003f9406 	br	41238 <__mulsf3+0x238>

000413e8 <__floatsisf>:
   413e8:	defffd04 	addi	sp,sp,-12
   413ec:	dfc00215 	stw	ra,8(sp)
   413f0:	dc400115 	stw	r17,4(sp)
   413f4:	dc000015 	stw	r16,0(sp)
   413f8:	20001226 	beq	r4,zero,41444 <__floatsisf+0x5c>
   413fc:	2022d7fa 	srli	r17,r4,31
   41400:	2021883a 	mov	r16,r4
   41404:	20003316 	blt	r4,zero,414d4 <__floatsisf+0xec>
   41408:	8009883a 	mov	r4,r16
   4140c:	00417180 	call	41718 <__clzsi2>
   41410:	1009883a 	mov	r4,r2
   41414:	00802784 	movi	r2,158
   41418:	1105c83a 	sub	r2,r2,r4
   4141c:	10c025c8 	cmpgei	r3,r2,151
   41420:	1800151e 	bne	r3,zero,41478 <__floatsisf+0x90>
   41424:	20c00218 	cmpnei	r3,r4,8
   41428:	18003426 	beq	r3,zero,414fc <__floatsisf+0x114>
   4142c:	20fffe04 	addi	r3,r4,-8
   41430:	80c6983a 	sll	r3,r16,r3
   41434:	01002034 	movhi	r4,128
   41438:	213fffc4 	addi	r4,r4,-1
   4143c:	1906703a 	and	r3,r3,r4
   41440:	00000306 	br	41450 <__floatsisf+0x68>
   41444:	0023883a 	mov	r17,zero
   41448:	0005883a 	mov	r2,zero
   4144c:	0007883a 	mov	r3,zero
   41450:	10803fcc 	andi	r2,r2,255
   41454:	100495fa 	slli	r2,r2,23
   41458:	880897fa 	slli	r4,r17,31
   4145c:	10c4b03a 	or	r2,r2,r3
   41460:	1104b03a 	or	r2,r2,r4
   41464:	dfc00217 	ldw	ra,8(sp)
   41468:	dc400117 	ldw	r17,4(sp)
   4146c:	dc000017 	ldw	r16,0(sp)
   41470:	dec00304 	addi	sp,sp,12
   41474:	f800283a 	ret
   41478:	10c02690 	cmplti	r3,r2,154
   4147c:	18001726 	beq	r3,zero,414dc <__floatsisf+0xf4>
   41480:	20c00160 	cmpeqi	r3,r4,5
   41484:	217ffec4 	addi	r5,r4,-5
   41488:	1800011e 	bne	r3,zero,41490 <__floatsisf+0xa8>
   4148c:	8160983a 	sll	r16,r16,r5
   41490:	017f0034 	movhi	r5,64512
   41494:	297fffc4 	addi	r5,r5,-1
   41498:	818001cc 	andi	r6,r16,7
   4149c:	8146703a 	and	r3,r16,r5
   414a0:	30000926 	beq	r6,zero,414c8 <__floatsisf+0xe0>
   414a4:	840003cc 	andi	r16,r16,15
   414a8:	84000120 	cmpeqi	r16,r16,4
   414ac:	8000061e 	bne	r16,zero,414c8 <__floatsisf+0xe0>
   414b0:	18c00104 	addi	r3,r3,4
   414b4:	1981002c 	andhi	r6,r3,1024
   414b8:	30000326 	beq	r6,zero,414c8 <__floatsisf+0xe0>
   414bc:	008027c4 	movi	r2,159
   414c0:	1946703a 	and	r3,r3,r5
   414c4:	1105c83a 	sub	r2,r2,r4
   414c8:	180691ba 	slli	r3,r3,6
   414cc:	1806d27a 	srli	r3,r3,9
   414d0:	003fdf06 	br	41450 <__floatsisf+0x68>
   414d4:	0121c83a 	sub	r16,zero,r4
   414d8:	003fcb06 	br	41408 <__floatsisf+0x20>
   414dc:	20c006c4 	addi	r3,r4,27
   414e0:	01400144 	movi	r5,5
   414e4:	80c6983a 	sll	r3,r16,r3
   414e8:	290bc83a 	sub	r5,r5,r4
   414ec:	8160d83a 	srl	r16,r16,r5
   414f0:	1806c03a 	cmpne	r3,r3,zero
   414f4:	80e0b03a 	or	r16,r16,r3
   414f8:	003fe506 	br	41490 <__floatsisf+0xa8>
   414fc:	00c02034 	movhi	r3,128
   41500:	18ffffc4 	addi	r3,r3,-1
   41504:	80c6703a 	and	r3,r16,r3
   41508:	00bfe584 	movi	r2,-106
   4150c:	003fd006 	br	41450 <__floatsisf+0x68>

00041510 <__floatunsisf>:
   41510:	20001826 	beq	r4,zero,41574 <__floatunsisf+0x64>
   41514:	defffe04 	addi	sp,sp,-8
   41518:	dc000015 	stw	r16,0(sp)
   4151c:	dfc00115 	stw	ra,4(sp)
   41520:	2021883a 	mov	r16,r4
   41524:	00417180 	call	41718 <__clzsi2>
   41528:	1009883a 	mov	r4,r2
   4152c:	00802784 	movi	r2,158
   41530:	1105c83a 	sub	r2,r2,r4
   41534:	10c025c8 	cmpgei	r3,r2,151
   41538:	1800141e 	bne	r3,zero,4158c <__floatunsisf+0x7c>
   4153c:	20c00218 	cmpnei	r3,r4,8
   41540:	18003126 	beq	r3,zero,41608 <__floatunsisf+0xf8>
   41544:	213ffe04 	addi	r4,r4,-8
   41548:	8106983a 	sll	r3,r16,r4
   4154c:	01002034 	movhi	r4,128
   41550:	213fffc4 	addi	r4,r4,-1
   41554:	1906703a 	and	r3,r3,r4
   41558:	10803fcc 	andi	r2,r2,255
   4155c:	100495fa 	slli	r2,r2,23
   41560:	10c4b03a 	or	r2,r2,r3
   41564:	dfc00117 	ldw	ra,4(sp)
   41568:	dc000017 	ldw	r16,0(sp)
   4156c:	dec00204 	addi	sp,sp,8
   41570:	f800283a 	ret
   41574:	0005883a 	mov	r2,zero
   41578:	10803fcc 	andi	r2,r2,255
   4157c:	100495fa 	slli	r2,r2,23
   41580:	0007883a 	mov	r3,zero
   41584:	10c4b03a 	or	r2,r2,r3
   41588:	f800283a 	ret
   4158c:	10c02690 	cmplti	r3,r2,154
   41590:	18001526 	beq	r3,zero,415e8 <__floatunsisf+0xd8>
   41594:	20c00160 	cmpeqi	r3,r4,5
   41598:	217ffec4 	addi	r5,r4,-5
   4159c:	1800011e 	bne	r3,zero,415a4 <__floatunsisf+0x94>
   415a0:	8160983a 	sll	r16,r16,r5
   415a4:	017f0034 	movhi	r5,64512
   415a8:	297fffc4 	addi	r5,r5,-1
   415ac:	818001cc 	andi	r6,r16,7
   415b0:	8146703a 	and	r3,r16,r5
   415b4:	30000926 	beq	r6,zero,415dc <__floatunsisf+0xcc>
   415b8:	840003cc 	andi	r16,r16,15
   415bc:	84000120 	cmpeqi	r16,r16,4
   415c0:	8000061e 	bne	r16,zero,415dc <__floatunsisf+0xcc>
   415c4:	18c00104 	addi	r3,r3,4
   415c8:	1981002c 	andhi	r6,r3,1024
   415cc:	30000326 	beq	r6,zero,415dc <__floatunsisf+0xcc>
   415d0:	008027c4 	movi	r2,159
   415d4:	1946703a 	and	r3,r3,r5
   415d8:	1105c83a 	sub	r2,r2,r4
   415dc:	180691ba 	slli	r3,r3,6
   415e0:	1806d27a 	srli	r3,r3,9
   415e4:	003fdc06 	br	41558 <__floatunsisf+0x48>
   415e8:	20c006c4 	addi	r3,r4,27
   415ec:	01400144 	movi	r5,5
   415f0:	80c6983a 	sll	r3,r16,r3
   415f4:	290bc83a 	sub	r5,r5,r4
   415f8:	8160d83a 	srl	r16,r16,r5
   415fc:	1806c03a 	cmpne	r3,r3,zero
   41600:	1c20b03a 	or	r16,r3,r16
   41604:	003fe706 	br	415a4 <__floatunsisf+0x94>
   41608:	00c02034 	movhi	r3,128
   4160c:	18ffffc4 	addi	r3,r3,-1
   41610:	80c6703a 	and	r3,r16,r3
   41614:	00bfe584 	movi	r2,-106
   41618:	003fcf06 	br	41558 <__floatunsisf+0x48>

0004161c <__extendsfdf2>:
   4161c:	200ad5fa 	srli	r5,r4,23
   41620:	defffd04 	addi	sp,sp,-12
   41624:	dc000015 	stw	r16,0(sp)
   41628:	29403fcc 	andi	r5,r5,255
   4162c:	04002034 	movhi	r16,128
   41630:	28800044 	addi	r2,r5,1
   41634:	dc400115 	stw	r17,4(sp)
   41638:	843fffc4 	addi	r16,r16,-1
   4163c:	dfc00215 	stw	ra,8(sp)
   41640:	10803f8c 	andi	r2,r2,254
   41644:	2022d7fa 	srli	r17,r4,31
   41648:	8120703a 	and	r16,r16,r4
   4164c:	10000d26 	beq	r2,zero,41684 <__extendsfdf2+0x68>
   41650:	8008d0fa 	srli	r4,r16,3
   41654:	8020977a 	slli	r16,r16,29
   41658:	2940e004 	addi	r5,r5,896
   4165c:	280a953a 	slli	r5,r5,20
   41660:	880697fa 	slli	r3,r17,31
   41664:	8005883a 	mov	r2,r16
   41668:	290ab03a 	or	r5,r5,r4
   4166c:	28c6b03a 	or	r3,r5,r3
   41670:	dfc00217 	ldw	ra,8(sp)
   41674:	dc400117 	ldw	r17,4(sp)
   41678:	dc000017 	ldw	r16,0(sp)
   4167c:	dec00304 	addi	sp,sp,12
   41680:	f800283a 	ret
   41684:	2800111e 	bne	r5,zero,416cc <__extendsfdf2+0xb0>
   41688:	80001926 	beq	r16,zero,416f0 <__extendsfdf2+0xd4>
   4168c:	8009883a 	mov	r4,r16
   41690:	00417180 	call	41718 <__clzsi2>
   41694:	10c002c8 	cmpgei	r3,r2,11
   41698:	18001b1e 	bne	r3,zero,41708 <__extendsfdf2+0xec>
   4169c:	010002c4 	movi	r4,11
   416a0:	2089c83a 	sub	r4,r4,r2
   416a4:	10c00544 	addi	r3,r2,21
   416a8:	8108d83a 	srl	r4,r16,r4
   416ac:	80e0983a 	sll	r16,r16,r3
   416b0:	00c00434 	movhi	r3,16
   416b4:	0140e244 	movi	r5,905
   416b8:	18ffffc4 	addi	r3,r3,-1
   416bc:	288bc83a 	sub	r5,r5,r2
   416c0:	20c8703a 	and	r4,r4,r3
   416c4:	2941ffcc 	andi	r5,r5,2047
   416c8:	003fe406 	br	4165c <__extendsfdf2+0x40>
   416cc:	80000b26 	beq	r16,zero,416fc <__extendsfdf2+0xe0>
   416d0:	8008d0fa 	srli	r4,r16,3
   416d4:	00800434 	movhi	r2,16
   416d8:	10bfffc4 	addi	r2,r2,-1
   416dc:	21000234 	orhi	r4,r4,8
   416e0:	8020977a 	slli	r16,r16,29
   416e4:	2088703a 	and	r4,r4,r2
   416e8:	0141ffc4 	movi	r5,2047
   416ec:	003fdb06 	br	4165c <__extendsfdf2+0x40>
   416f0:	000b883a 	mov	r5,zero
   416f4:	0009883a 	mov	r4,zero
   416f8:	003fd806 	br	4165c <__extendsfdf2+0x40>
   416fc:	0141ffc4 	movi	r5,2047
   41700:	0009883a 	mov	r4,zero
   41704:	003fd506 	br	4165c <__extendsfdf2+0x40>
   41708:	113ffd44 	addi	r4,r2,-11
   4170c:	8108983a 	sll	r4,r16,r4
   41710:	0021883a 	mov	r16,zero
   41714:	003fe606 	br	416b0 <__extendsfdf2+0x94>

00041718 <__clzsi2>:
   41718:	00bfffd4 	movui	r2,65535
   4171c:	11000a36 	bltu	r2,r4,41748 <__clzsi2+0x30>
   41720:	20c04028 	cmpgeui	r3,r4,256
   41724:	180690fa 	slli	r3,r3,3
   41728:	00800804 	movi	r2,32
   4172c:	10c5c83a 	sub	r2,r2,r3
   41730:	20c8d83a 	srl	r4,r4,r3
   41734:	00c00174 	movhi	r3,5
   41738:	20c7883a 	add	r3,r4,r3
   4173c:	18c4b303 	ldbu	r3,4812(r3)
   41740:	10c5c83a 	sub	r2,r2,r3
   41744:	f800283a 	ret
   41748:	00804034 	movhi	r2,256
   4174c:	2080032e 	bgeu	r4,r2,4175c <__clzsi2+0x44>
   41750:	00800404 	movi	r2,16
   41754:	00c00404 	movi	r3,16
   41758:	003ff506 	br	41730 <__clzsi2+0x18>
   4175c:	00800204 	movi	r2,8
   41760:	00c00604 	movi	r3,24
   41764:	003ff206 	br	41730 <__clzsi2+0x18>

00041768 <_printf_r>:
   41768:	defffd04 	addi	sp,sp,-12
   4176c:	2805883a 	mov	r2,r5
   41770:	dfc00015 	stw	ra,0(sp)
   41774:	d9800115 	stw	r6,4(sp)
   41778:	d9c00215 	stw	r7,8(sp)
   4177c:	21400217 	ldw	r5,8(r4)
   41780:	d9c00104 	addi	r7,sp,4
   41784:	100d883a 	mov	r6,r2
   41788:	00419480 	call	41948 <___vfprintf_internal_r>
   4178c:	dfc00017 	ldw	ra,0(sp)
   41790:	dec00304 	addi	sp,sp,12
   41794:	f800283a 	ret

00041798 <printf>:
   41798:	defffc04 	addi	sp,sp,-16
   4179c:	dfc00015 	stw	ra,0(sp)
   417a0:	d9400115 	stw	r5,4(sp)
   417a4:	d9800215 	stw	r6,8(sp)
   417a8:	d9c00315 	stw	r7,12(sp)
   417ac:	00800174 	movhi	r2,5
   417b0:	108d3017 	ldw	r2,13504(r2)
   417b4:	200b883a 	mov	r5,r4
   417b8:	d9800104 	addi	r6,sp,4
   417bc:	11000217 	ldw	r4,8(r2)
   417c0:	0043cf00 	call	43cf0 <__vfprintf_internal>
   417c4:	dfc00017 	ldw	ra,0(sp)
   417c8:	dec00404 	addi	sp,sp,16
   417cc:	f800283a 	ret

000417d0 <_puts_r>:
   417d0:	defff504 	addi	sp,sp,-44
   417d4:	dc000815 	stw	r16,32(sp)
   417d8:	2021883a 	mov	r16,r4
   417dc:	2809883a 	mov	r4,r5
   417e0:	dc400915 	stw	r17,36(sp)
   417e4:	dfc00a15 	stw	ra,40(sp)
   417e8:	2823883a 	mov	r17,r5
   417ec:	00418b00 	call	418b0 <strlen>
   417f0:	11000044 	addi	r4,r2,1
   417f4:	d8800515 	stw	r2,20(sp)
   417f8:	00800044 	movi	r2,1
   417fc:	00c00174 	movhi	r3,5
   41800:	d8800715 	stw	r2,28(sp)
   41804:	d8800404 	addi	r2,sp,16
   41808:	18c4f304 	addi	r3,r3,5068
   4180c:	d8800115 	stw	r2,4(sp)
   41810:	00800084 	movi	r2,2
   41814:	dc400415 	stw	r17,16(sp)
   41818:	d8c00615 	stw	r3,24(sp)
   4181c:	d9000315 	stw	r4,12(sp)
   41820:	d8800215 	stw	r2,8(sp)
   41824:	81400217 	ldw	r5,8(r16)
   41828:	80000226 	beq	r16,zero,41834 <_puts_r+0x64>
   4182c:	80800e17 	ldw	r2,56(r16)
   41830:	10001426 	beq	r2,zero,41884 <_puts_r+0xb4>
   41834:	2880030b 	ldhu	r2,12(r5)
   41838:	10c8000c 	andi	r3,r2,8192
   4183c:	1800061e 	bne	r3,zero,41858 <_puts_r+0x88>
   41840:	28c01917 	ldw	r3,100(r5)
   41844:	0137ffc4 	movi	r4,-8193
   41848:	10880014 	ori	r2,r2,8192
   4184c:	1906703a 	and	r3,r3,r4
   41850:	2880030d 	sth	r2,12(r5)
   41854:	28c01915 	stw	r3,100(r5)
   41858:	d9800104 	addi	r6,sp,4
   4185c:	8009883a 	mov	r4,r16
   41860:	00463940 	call	46394 <__sfvwrite_r>
   41864:	1007883a 	mov	r3,r2
   41868:	00800284 	movi	r2,10
   4186c:	18000a1e 	bne	r3,zero,41898 <_puts_r+0xc8>
   41870:	dfc00a17 	ldw	ra,40(sp)
   41874:	dc400917 	ldw	r17,36(sp)
   41878:	dc000817 	ldw	r16,32(sp)
   4187c:	dec00b04 	addi	sp,sp,44
   41880:	f800283a 	ret
   41884:	8009883a 	mov	r4,r16
   41888:	d9400015 	stw	r5,0(sp)
   4188c:	0045f200 	call	45f20 <__sinit>
   41890:	d9400017 	ldw	r5,0(sp)
   41894:	003fe706 	br	41834 <_puts_r+0x64>
   41898:	00bfffc4 	movi	r2,-1
   4189c:	003ff406 	br	41870 <_puts_r+0xa0>

000418a0 <puts>:
   418a0:	00800174 	movhi	r2,5
   418a4:	200b883a 	mov	r5,r4
   418a8:	110d3017 	ldw	r4,13504(r2)
   418ac:	00417d01 	jmpi	417d0 <_puts_r>

000418b0 <strlen>:
   418b0:	208000cc 	andi	r2,r4,3
   418b4:	10000926 	beq	r2,zero,418dc <strlen+0x2c>
   418b8:	2005883a 	mov	r2,r4
   418bc:	00000306 	br	418cc <strlen+0x1c>
   418c0:	10800044 	addi	r2,r2,1
   418c4:	10c000cc 	andi	r3,r2,3
   418c8:	18000526 	beq	r3,zero,418e0 <strlen+0x30>
   418cc:	10c00007 	ldb	r3,0(r2)
   418d0:	183ffb1e 	bne	r3,zero,418c0 <strlen+0x10>
   418d4:	1105c83a 	sub	r2,r2,r4
   418d8:	f800283a 	ret
   418dc:	2005883a 	mov	r2,r4
   418e0:	11400017 	ldw	r5,0(r2)
   418e4:	01ffbff4 	movhi	r7,65279
   418e8:	39ffbfc4 	addi	r7,r7,-257
   418ec:	29c7883a 	add	r3,r5,r7
   418f0:	01a02074 	movhi	r6,32897
   418f4:	014a303a 	nor	r5,zero,r5
   418f8:	1946703a 	and	r3,r3,r5
   418fc:	31a02004 	addi	r6,r6,-32640
   41900:	1986703a 	and	r3,r3,r6
   41904:	1800071e 	bne	r3,zero,41924 <strlen+0x74>
   41908:	11400117 	ldw	r5,4(r2)
   4190c:	10800104 	addi	r2,r2,4
   41910:	29c7883a 	add	r3,r5,r7
   41914:	014a303a 	nor	r5,zero,r5
   41918:	1946703a 	and	r3,r3,r5
   4191c:	1986703a 	and	r3,r3,r6
   41920:	183ff926 	beq	r3,zero,41908 <strlen+0x58>
   41924:	10c00007 	ldb	r3,0(r2)
   41928:	183fea26 	beq	r3,zero,418d4 <strlen+0x24>
   4192c:	10c00047 	ldb	r3,1(r2)
   41930:	10800044 	addi	r2,r2,1
   41934:	183fe726 	beq	r3,zero,418d4 <strlen+0x24>
   41938:	10c00047 	ldb	r3,1(r2)
   4193c:	10800044 	addi	r2,r2,1
   41940:	183ffa1e 	bne	r3,zero,4192c <strlen+0x7c>
   41944:	003fe306 	br	418d4 <strlen+0x24>

00041948 <___vfprintf_internal_r>:
   41948:	deffbc04 	addi	sp,sp,-272
   4194c:	dfc04315 	stw	ra,268(sp)
   41950:	dc803c15 	stw	r18,240(sp)
   41954:	dc003a15 	stw	r16,232(sp)
   41958:	d9000515 	stw	r4,20(sp)
   4195c:	2021883a 	mov	r16,r4
   41960:	d9400415 	stw	r5,16(sp)
   41964:	3025883a 	mov	r18,r6
   41968:	d9c00715 	stw	r7,28(sp)
   4196c:	df004215 	stw	fp,264(sp)
   41970:	ddc04115 	stw	r23,260(sp)
   41974:	dd804015 	stw	r22,256(sp)
   41978:	dd403f15 	stw	r21,252(sp)
   4197c:	dd003e15 	stw	r20,248(sp)
   41980:	dcc03d15 	stw	r19,244(sp)
   41984:	dc403b15 	stw	r17,236(sp)
   41988:	00469800 	call	46980 <_localeconv_r>
   4198c:	10800017 	ldw	r2,0(r2)
   41990:	1009883a 	mov	r4,r2
   41994:	d8800d15 	stw	r2,52(sp)
   41998:	00418b00 	call	418b0 <strlen>
   4199c:	d8800c15 	stw	r2,48(sp)
   419a0:	80000226 	beq	r16,zero,419ac <___vfprintf_internal_r+0x64>
   419a4:	80800e17 	ldw	r2,56(r16)
   419a8:	10022b26 	beq	r2,zero,42258 <___vfprintf_internal_r+0x910>
   419ac:	d9400417 	ldw	r5,16(sp)
   419b0:	2880030b 	ldhu	r2,12(r5)
   419b4:	10c8000c 	andi	r3,r2,8192
   419b8:	1800071e 	bne	r3,zero,419d8 <___vfprintf_internal_r+0x90>
   419bc:	28c01917 	ldw	r3,100(r5)
   419c0:	11080014 	ori	r4,r2,8192
   419c4:	00b7ffc4 	movi	r2,-8193
   419c8:	1886703a 	and	r3,r3,r2
   419cc:	2900030d 	sth	r4,12(r5)
   419d0:	2005883a 	mov	r2,r4
   419d4:	28c01915 	stw	r3,100(r5)
   419d8:	10c0020c 	andi	r3,r2,8
   419dc:	1800f626 	beq	r3,zero,41db8 <___vfprintf_internal_r+0x470>
   419e0:	d8c00417 	ldw	r3,16(sp)
   419e4:	18c00417 	ldw	r3,16(r3)
   419e8:	1800f326 	beq	r3,zero,41db8 <___vfprintf_internal_r+0x470>
   419ec:	1080068c 	andi	r2,r2,26
   419f0:	10800298 	cmpnei	r2,r2,10
   419f4:	1000f926 	beq	r2,zero,41ddc <___vfprintf_internal_r+0x494>
   419f8:	dc402a04 	addi	r17,sp,168
   419fc:	04c00174 	movhi	r19,5
   41a00:	9029883a 	mov	r20,r18
   41a04:	dc401d15 	stw	r17,116(sp)
   41a08:	d8001f15 	stw	zero,124(sp)
   41a0c:	d8001e15 	stw	zero,120(sp)
   41a10:	d8000915 	stw	zero,36(sp)
   41a14:	d8000a15 	stw	zero,40(sp)
   41a18:	d8000b15 	stw	zero,44(sp)
   41a1c:	d8000e15 	stw	zero,56(sp)
   41a20:	d8001115 	stw	zero,68(sp)
   41a24:	d8000615 	stw	zero,24(sp)
   41a28:	9cc50504 	addi	r19,r19,5140
   41a2c:	8825883a 	mov	r18,r17
   41a30:	a0800007 	ldb	r2,0(r20)
   41a34:	1000cd26 	beq	r2,zero,41d6c <___vfprintf_internal_r+0x424>
   41a38:	a021883a 	mov	r16,r20
   41a3c:	00000306 	br	41a4c <___vfprintf_internal_r+0x104>
   41a40:	80800047 	ldb	r2,1(r16)
   41a44:	84000044 	addi	r16,r16,1
   41a48:	10015126 	beq	r2,zero,41f90 <___vfprintf_internal_r+0x648>
   41a4c:	10800958 	cmpnei	r2,r2,37
   41a50:	103ffb1e 	bne	r2,zero,41a40 <___vfprintf_internal_r+0xf8>
   41a54:	852fc83a 	sub	r23,r16,r20
   41a58:	85014f1e 	bne	r16,r20,41f98 <___vfprintf_internal_r+0x650>
   41a5c:	80800003 	ldbu	r2,0(r16)
   41a60:	10803fcc 	andi	r2,r2,255
   41a64:	1080201c 	xori	r2,r2,128
   41a68:	10bfe004 	addi	r2,r2,-128
   41a6c:	1000bf26 	beq	r2,zero,41d6c <___vfprintf_internal_r+0x424>
   41a70:	82c00047 	ldb	r11,1(r16)
   41a74:	85000044 	addi	r20,r16,1
   41a78:	d8001645 	stb	zero,89(sp)
   41a7c:	023fffc4 	movi	r8,-1
   41a80:	0021883a 	mov	r16,zero
   41a84:	001b883a 	mov	r13,zero
   41a88:	a5000044 	addi	r20,r20,1
   41a8c:	5839883a 	mov	fp,r11
   41a90:	e0bff804 	addi	r2,fp,-32
   41a94:	10c01668 	cmpgeui	r3,r2,89
   41a98:	18006a1e 	bne	r3,zero,41c44 <___vfprintf_internal_r+0x2fc>
   41a9c:	100490ba 	slli	r2,r2,2
   41aa0:	00c00134 	movhi	r3,4
   41aa4:	10c7883a 	add	r3,r2,r3
   41aa8:	1886ac17 	ldw	r2,6832(r3)
   41aac:	1000683a 	jmp	r2
   41ab0:	00042328 	cmpgeui	zero,zero,4236
   41ab4:	00041c44 	movi	zero,4209
   41ab8:	00041c44 	movi	zero,4209
   41abc:	0004231c 	xori	zero,zero,4236
   41ac0:	00041c44 	movi	zero,4209
   41ac4:	00041c44 	movi	zero,4209
   41ac8:	00041c44 	movi	zero,4209
   41acc:	00041c44 	movi	zero,4209
   41ad0:	00041c44 	movi	zero,4209
   41ad4:	00041c44 	movi	zero,4209
   41ad8:	00042298 	cmpnei	zero,zero,4234
   41adc:	0004230c 	andi	zero,zero,4236
   41ae0:	00041c44 	movi	zero,4209
   41ae4:	000422b0 	cmpltui	zero,zero,4234
   41ae8:	000422bc 	xorhi	zero,zero,4234
   41aec:	00041c44 	movi	zero,4209
   41af0:	00042300 	call	4230 <__reset-0x3bdd0>
   41af4:	00041c14 	movui	zero,4208
   41af8:	00041c14 	movui	zero,4208
   41afc:	00041c14 	movui	zero,4208
   41b00:	00041c14 	movui	zero,4208
   41b04:	00041c14 	movui	zero,4208
   41b08:	00041c14 	movui	zero,4208
   41b0c:	00041c14 	movui	zero,4208
   41b10:	00041c14 	movui	zero,4208
   41b14:	00041c14 	movui	zero,4208
   41b18:	00041c44 	movi	zero,4209
   41b1c:	00041c44 	movi	zero,4209
   41b20:	00041c44 	movi	zero,4209
   41b24:	00041c44 	movi	zero,4209
   41b28:	00041c44 	movi	zero,4209
   41b2c:	00041c44 	movi	zero,4209
   41b30:	00041c44 	movi	zero,4209
   41b34:	00041c44 	movi	zero,4209
   41b38:	00041c44 	movi	zero,4209
   41b3c:	00041c44 	movi	zero,4209
   41b40:	00041e28 	cmpgeui	zero,zero,4216
   41b44:	000420c4 	movi	zero,4227
   41b48:	00041c44 	movi	zero,4209
   41b4c:	000420c4 	movi	zero,4227
   41b50:	00041c44 	movi	zero,4209
   41b54:	00041c44 	movi	zero,4209
   41b58:	00041c44 	movi	zero,4209
   41b5c:	00041c44 	movi	zero,4209
   41b60:	00042374 	movhi	zero,4237
   41b64:	00041c44 	movi	zero,4209
   41b68:	00041c44 	movi	zero,4209
   41b6c:	00041e90 	cmplti	zero,zero,4218
   41b70:	00041c44 	movi	zero,4209
   41b74:	00041c44 	movi	zero,4209
   41b78:	00041c44 	movi	zero,4209
   41b7c:	00041c44 	movi	zero,4209
   41b80:	00041c44 	movi	zero,4209
   41b84:	00041eb8 	rdprs	zero,zero,4218
   41b88:	00041c44 	movi	zero,4209
   41b8c:	00041c44 	movi	zero,4209
   41b90:	00042f00 	call	42f0 <__reset-0x3bd10>
   41b94:	00041c44 	movi	zero,4209
   41b98:	00041c44 	movi	zero,4209
   41b9c:	00041c44 	movi	zero,4209
   41ba0:	00041c44 	movi	zero,4209
   41ba4:	00041c44 	movi	zero,4209
   41ba8:	00041c44 	movi	zero,4209
   41bac:	00041c44 	movi	zero,4209
   41bb0:	00041c44 	movi	zero,4209
   41bb4:	00041c44 	movi	zero,4209
   41bb8:	00041c44 	movi	zero,4209
   41bbc:	0004238c 	andi	zero,zero,4238
   41bc0:	00041e2c 	andhi	zero,zero,4216
   41bc4:	000420c4 	movi	zero,4227
   41bc8:	000420c4 	movi	zero,4227
   41bcc:	000420c4 	movi	zero,4227
   41bd0:	00042380 	call	4238 <__reset-0x3bdc8>
   41bd4:	00041e2c 	andhi	zero,zero,4216
   41bd8:	00041c44 	movi	zero,4209
   41bdc:	00041c44 	movi	zero,4209
   41be0:	0004234c 	andi	zero,zero,4237
   41be4:	00041c44 	movi	zero,4209
   41be8:	00042448 	cmpgei	zero,zero,4241
   41bec:	00041e94 	movui	zero,4218
   41bf0:	00042410 	cmplti	zero,zero,4240
   41bf4:	00042404 	movi	zero,4240
   41bf8:	00041c44 	movi	zero,4209
   41bfc:	000423b4 	movhi	zero,4238
   41c00:	00041c44 	movi	zero,4209
   41c04:	00041ebc 	xorhi	zero,zero,4218
   41c08:	00041c44 	movi	zero,4209
   41c0c:	00041c44 	movi	zero,4209
   41c10:	00042f70 	cmpltui	zero,zero,4285
   41c14:	0021883a 	mov	r16,zero
   41c18:	e0bff404 	addi	r2,fp,-48
   41c1c:	a7000007 	ldb	fp,0(r20)
   41c20:	840002a4 	muli	r16,r16,10
   41c24:	a5000044 	addi	r20,r20,1
   41c28:	1421883a 	add	r16,r2,r16
   41c2c:	e0bff404 	addi	r2,fp,-48
   41c30:	10c002b0 	cmpltui	r3,r2,10
   41c34:	183ff91e 	bne	r3,zero,41c1c <___vfprintf_internal_r+0x2d4>
   41c38:	e0bff804 	addi	r2,fp,-32
   41c3c:	10c01668 	cmpgeui	r3,r2,89
   41c40:	183f9626 	beq	r3,zero,41a9c <___vfprintf_internal_r+0x154>
   41c44:	e0004926 	beq	fp,zero,41d6c <___vfprintf_internal_r+0x424>
   41c48:	df002005 	stb	fp,128(sp)
   41c4c:	d8001645 	stb	zero,89(sp)
   41c50:	03000044 	movi	r12,1
   41c54:	01c00044 	movi	r7,1
   41c58:	dd402004 	addi	r21,sp,128
   41c5c:	6807883a 	mov	r3,r13
   41c60:	0011883a 	mov	r8,zero
   41c64:	d8000815 	stw	zero,32(sp)
   41c68:	1b80008c 	andi	r14,r3,2
   41c6c:	70000126 	beq	r14,zero,41c74 <___vfprintf_internal_r+0x32c>
   41c70:	63000084 	addi	r12,r12,2
   41c74:	1b40210c 	andi	r13,r3,132
   41c78:	6800021e 	bne	r13,zero,41c84 <___vfprintf_internal_r+0x33c>
   41c7c:	832dc83a 	sub	r22,r16,r12
   41c80:	05832916 	blt	zero,r22,42928 <___vfprintf_internal_r+0xfe0>
   41c84:	d8801647 	ldb	r2,89(sp)
   41c88:	dd801f17 	ldw	r22,124(sp)
   41c8c:	10000c26 	beq	r2,zero,41cc0 <___vfprintf_internal_r+0x378>
   41c90:	d8801e17 	ldw	r2,120(sp)
   41c94:	d9001644 	addi	r4,sp,89
   41c98:	b5800044 	addi	r22,r22,1
   41c9c:	10800044 	addi	r2,r2,1
   41ca0:	91000015 	stw	r4,0(r18)
   41ca4:	01000044 	movi	r4,1
   41ca8:	d8801e15 	stw	r2,120(sp)
   41cac:	91000115 	stw	r4,4(r18)
   41cb0:	dd801f15 	stw	r22,124(sp)
   41cb4:	10800208 	cmpgei	r2,r2,8
   41cb8:	10037b1e 	bne	r2,zero,42aa8 <___vfprintf_internal_r+0x1160>
   41cbc:	94800204 	addi	r18,r18,8
   41cc0:	70000c26 	beq	r14,zero,41cf4 <___vfprintf_internal_r+0x3ac>
   41cc4:	d8801e17 	ldw	r2,120(sp)
   41cc8:	d9001684 	addi	r4,sp,90
   41ccc:	b5800084 	addi	r22,r22,2
   41cd0:	10800044 	addi	r2,r2,1
   41cd4:	91000015 	stw	r4,0(r18)
   41cd8:	01000084 	movi	r4,2
   41cdc:	d8801e15 	stw	r2,120(sp)
   41ce0:	91000115 	stw	r4,4(r18)
   41ce4:	dd801f15 	stw	r22,124(sp)
   41ce8:	10800208 	cmpgei	r2,r2,8
   41cec:	1003821e 	bne	r2,zero,42af8 <___vfprintf_internal_r+0x11b0>
   41cf0:	94800204 	addi	r18,r18,8
   41cf4:	6b402018 	cmpnei	r13,r13,128
   41cf8:	68023426 	beq	r13,zero,425cc <___vfprintf_internal_r+0xc84>
   41cfc:	41efc83a 	sub	r23,r8,r7
   41d00:	05c27416 	blt	zero,r23,426d4 <___vfprintf_internal_r+0xd8c>
   41d04:	1880400c 	andi	r2,r3,256
   41d08:	1001db1e 	bne	r2,zero,42478 <___vfprintf_internal_r+0xb30>
   41d0c:	d8801e17 	ldw	r2,120(sp)
   41d10:	3d89883a 	add	r4,r7,r22
   41d14:	95400015 	stw	r21,0(r18)
   41d18:	10800044 	addi	r2,r2,1
   41d1c:	d8801e15 	stw	r2,120(sp)
   41d20:	91c00115 	stw	r7,4(r18)
   41d24:	d9001f15 	stw	r4,124(sp)
   41d28:	10800208 	cmpgei	r2,r2,8
   41d2c:	1003521e 	bne	r2,zero,42a78 <___vfprintf_internal_r+0x1130>
   41d30:	94800204 	addi	r18,r18,8
   41d34:	18c0010c 	andi	r3,r3,4
   41d38:	18000226 	beq	r3,zero,41d44 <___vfprintf_internal_r+0x3fc>
   41d3c:	8339c83a 	sub	fp,r16,r12
   41d40:	0700ac16 	blt	zero,fp,41ff4 <___vfprintf_internal_r+0x6ac>
   41d44:	8300010e 	bge	r16,r12,41d4c <___vfprintf_internal_r+0x404>
   41d48:	6021883a 	mov	r16,r12
   41d4c:	d8800617 	ldw	r2,24(sp)
   41d50:	1405883a 	add	r2,r2,r16
   41d54:	d8800615 	stw	r2,24(sp)
   41d58:	2002b01e 	bne	r4,zero,4281c <___vfprintf_internal_r+0xed4>
   41d5c:	a0800007 	ldb	r2,0(r20)
   41d60:	d8001e15 	stw	zero,120(sp)
   41d64:	8825883a 	mov	r18,r17
   41d68:	103f331e 	bne	r2,zero,41a38 <___vfprintf_internal_r+0xf0>
   41d6c:	d8801f17 	ldw	r2,124(sp)
   41d70:	10063b1e 	bne	r2,zero,43660 <___vfprintf_internal_r+0x1d18>
   41d74:	d8800417 	ldw	r2,16(sp)
   41d78:	1080030b 	ldhu	r2,12(r2)
   41d7c:	1080100c 	andi	r2,r2,64
   41d80:	10075f1e 	bne	r2,zero,43b00 <___vfprintf_internal_r+0x21b8>
   41d84:	d8800617 	ldw	r2,24(sp)
   41d88:	dfc04317 	ldw	ra,268(sp)
   41d8c:	df004217 	ldw	fp,264(sp)
   41d90:	ddc04117 	ldw	r23,260(sp)
   41d94:	dd804017 	ldw	r22,256(sp)
   41d98:	dd403f17 	ldw	r21,252(sp)
   41d9c:	dd003e17 	ldw	r20,248(sp)
   41da0:	dcc03d17 	ldw	r19,244(sp)
   41da4:	dc803c17 	ldw	r18,240(sp)
   41da8:	dc403b17 	ldw	r17,236(sp)
   41dac:	dc003a17 	ldw	r16,232(sp)
   41db0:	dec04404 	addi	sp,sp,272
   41db4:	f800283a 	ret
   41db8:	d9400417 	ldw	r5,16(sp)
   41dbc:	d9000517 	ldw	r4,20(sp)
   41dc0:	0043dd00 	call	43dd0 <__swsetup_r>
   41dc4:	10074e1e 	bne	r2,zero,43b00 <___vfprintf_internal_r+0x21b8>
   41dc8:	d8800417 	ldw	r2,16(sp)
   41dcc:	1080030b 	ldhu	r2,12(r2)
   41dd0:	1080068c 	andi	r2,r2,26
   41dd4:	10800298 	cmpnei	r2,r2,10
   41dd8:	103f071e 	bne	r2,zero,419f8 <___vfprintf_internal_r+0xb0>
   41ddc:	d8800417 	ldw	r2,16(sp)
   41de0:	1080038f 	ldh	r2,14(r2)
   41de4:	103f0416 	blt	r2,zero,419f8 <___vfprintf_internal_r+0xb0>
   41de8:	d9c00717 	ldw	r7,28(sp)
   41dec:	d9400417 	ldw	r5,16(sp)
   41df0:	d9000517 	ldw	r4,20(sp)
   41df4:	900d883a 	mov	r6,r18
   41df8:	dfc04317 	ldw	ra,268(sp)
   41dfc:	df004217 	ldw	fp,264(sp)
   41e00:	ddc04117 	ldw	r23,260(sp)
   41e04:	dd804017 	ldw	r22,256(sp)
   41e08:	dd403f17 	ldw	r21,252(sp)
   41e0c:	dd003e17 	ldw	r20,248(sp)
   41e10:	dcc03d17 	ldw	r19,244(sp)
   41e14:	dc803c17 	ldw	r18,240(sp)
   41e18:	dc403b17 	ldw	r17,236(sp)
   41e1c:	dc003a17 	ldw	r16,232(sp)
   41e20:	dec04404 	addi	sp,sp,272
   41e24:	0043d0c1 	jmpi	43d0c <__sbprintf>
   41e28:	6b400414 	ori	r13,r13,16
   41e2c:	6880080c 	andi	r2,r13,32
   41e30:	1000dc26 	beq	r2,zero,421a4 <___vfprintf_internal_r+0x85c>
   41e34:	d8c00717 	ldw	r3,28(sp)
   41e38:	18800117 	ldw	r2,4(r3)
   41e3c:	1d800017 	ldw	r22,0(r3)
   41e40:	18c00204 	addi	r3,r3,8
   41e44:	d8c00715 	stw	r3,28(sp)
   41e48:	102f883a 	mov	r23,r2
   41e4c:	1000e316 	blt	r2,zero,421dc <___vfprintf_internal_r+0x894>
   41e50:	40bfffd8 	cmpnei	r2,r8,-1
   41e54:	d9001643 	ldbu	r4,89(sp)
   41e58:	10010626 	beq	r2,zero,42274 <___vfprintf_internal_r+0x92c>
   41e5c:	00ffdfc4 	movi	r3,-129
   41e60:	b5c4b03a 	or	r2,r22,r23
   41e64:	68c6703a 	and	r3,r13,r3
   41e68:	1001011e 	bne	r2,zero,42270 <___vfprintf_internal_r+0x928>
   41e6c:	00800044 	movi	r2,1
   41e70:	4002531e 	bne	r8,zero,427c0 <___vfprintf_internal_r+0xe78>
   41e74:	1003ad1e 	bne	r2,zero,42d2c <___vfprintf_internal_r+0x13e4>
   41e78:	69c0004c 	andi	r7,r13,1
   41e7c:	3803f626 	beq	r7,zero,42e58 <___vfprintf_internal_r+0x1510>
   41e80:	00800c04 	movi	r2,48
   41e84:	d88029c5 	stb	r2,167(sp)
   41e88:	dd4029c4 	addi	r21,sp,167
   41e8c:	00003606 	br	41f68 <___vfprintf_internal_r+0x620>
   41e90:	6b400414 	ori	r13,r13,16
   41e94:	6880080c 	andi	r2,r13,32
   41e98:	1000e326 	beq	r2,zero,42228 <___vfprintf_internal_r+0x8e0>
   41e9c:	d8c00717 	ldw	r3,28(sp)
   41ea0:	0005883a 	mov	r2,zero
   41ea4:	1d800017 	ldw	r22,0(r3)
   41ea8:	1dc00117 	ldw	r23,4(r3)
   41eac:	18c00204 	addi	r3,r3,8
   41eb0:	d8c00715 	stw	r3,28(sp)
   41eb4:	00000906 	br	41edc <___vfprintf_internal_r+0x594>
   41eb8:	6b400414 	ori	r13,r13,16
   41ebc:	6880080c 	andi	r2,r13,32
   41ec0:	1000cd26 	beq	r2,zero,421f8 <___vfprintf_internal_r+0x8b0>
   41ec4:	d8c00717 	ldw	r3,28(sp)
   41ec8:	00800044 	movi	r2,1
   41ecc:	1d800017 	ldw	r22,0(r3)
   41ed0:	1dc00117 	ldw	r23,4(r3)
   41ed4:	18c00204 	addi	r3,r3,8
   41ed8:	d8c00715 	stw	r3,28(sp)
   41edc:	0009883a 	mov	r4,zero
   41ee0:	d9001645 	stb	r4,89(sp)
   41ee4:	40ffffe0 	cmpeqi	r3,r8,-1
   41ee8:	1800051e 	bne	r3,zero,41f00 <___vfprintf_internal_r+0x5b8>
   41eec:	00ffdfc4 	movi	r3,-129
   41ef0:	b5cab03a 	or	r5,r22,r23
   41ef4:	68c6703a 	and	r3,r13,r3
   41ef8:	283fdd26 	beq	r5,zero,41e70 <___vfprintf_internal_r+0x528>
   41efc:	181b883a 	mov	r13,r3
   41f00:	10c00060 	cmpeqi	r3,r2,1
   41f04:	1800db1e 	bne	r3,zero,42274 <___vfprintf_internal_r+0x92c>
   41f08:	108000a0 	cmpeqi	r2,r2,2
   41f0c:	1002331e 	bne	r2,zero,427dc <___vfprintf_internal_r+0xe94>
   41f10:	882b883a 	mov	r21,r17
   41f14:	b006d0fa 	srli	r3,r22,3
   41f18:	b80c977a 	slli	r6,r23,29
   41f1c:	b82ed0fa 	srli	r23,r23,3
   41f20:	b58001cc 	andi	r22,r22,7
   41f24:	b0800c04 	addi	r2,r22,48
   41f28:	30ecb03a 	or	r22,r6,r3
   41f2c:	a8bfffc5 	stb	r2,-1(r21)
   41f30:	b5c6b03a 	or	r3,r22,r23
   41f34:	a80b883a 	mov	r5,r21
   41f38:	ad7fffc4 	addi	r21,r21,-1
   41f3c:	183ff51e 	bne	r3,zero,41f14 <___vfprintf_internal_r+0x5cc>
   41f40:	68c0004c 	andi	r3,r13,1
   41f44:	18023226 	beq	r3,zero,42810 <___vfprintf_internal_r+0xec8>
   41f48:	10800c18 	cmpnei	r2,r2,48
   41f4c:	10023026 	beq	r2,zero,42810 <___vfprintf_internal_r+0xec8>
   41f50:	297fff84 	addi	r5,r5,-2
   41f54:	00800c04 	movi	r2,48
   41f58:	a8bfffc5 	stb	r2,-1(r21)
   41f5c:	894fc83a 	sub	r7,r17,r5
   41f60:	6807883a 	mov	r3,r13
   41f64:	282b883a 	mov	r21,r5
   41f68:	4019883a 	mov	r12,r8
   41f6c:	41c0010e 	bge	r8,r7,41f74 <___vfprintf_internal_r+0x62c>
   41f70:	3819883a 	mov	r12,r7
   41f74:	d8000815 	stw	zero,32(sp)
   41f78:	21003fcc 	andi	r4,r4,255
   41f7c:	2100201c 	xori	r4,r4,128
   41f80:	213fe004 	addi	r4,r4,-128
   41f84:	203f3826 	beq	r4,zero,41c68 <___vfprintf_internal_r+0x320>
   41f88:	63000044 	addi	r12,r12,1
   41f8c:	003f3606 	br	41c68 <___vfprintf_internal_r+0x320>
   41f90:	852fc83a 	sub	r23,r16,r20
   41f94:	853f7526 	beq	r16,r20,41d6c <___vfprintf_internal_r+0x424>
   41f98:	dd801f17 	ldw	r22,124(sp)
   41f9c:	d8801e17 	ldw	r2,120(sp)
   41fa0:	95000015 	stw	r20,0(r18)
   41fa4:	b5ed883a 	add	r22,r22,r23
   41fa8:	10800044 	addi	r2,r2,1
   41fac:	d8801e15 	stw	r2,120(sp)
   41fb0:	95c00115 	stw	r23,4(r18)
   41fb4:	dd801f15 	stw	r22,124(sp)
   41fb8:	10800208 	cmpgei	r2,r2,8
   41fbc:	1000061e 	bne	r2,zero,41fd8 <___vfprintf_internal_r+0x690>
   41fc0:	94800204 	addi	r18,r18,8
   41fc4:	d8c00617 	ldw	r3,24(sp)
   41fc8:	80800003 	ldbu	r2,0(r16)
   41fcc:	1dc7883a 	add	r3,r3,r23
   41fd0:	d8c00615 	stw	r3,24(sp)
   41fd4:	003ea206 	br	41a60 <___vfprintf_internal_r+0x118>
   41fd8:	d9400417 	ldw	r5,16(sp)
   41fdc:	d9000517 	ldw	r4,20(sp)
   41fe0:	d9801d04 	addi	r6,sp,116
   41fe4:	004913c0 	call	4913c <__sprint_r>
   41fe8:	103f621e 	bne	r2,zero,41d74 <___vfprintf_internal_r+0x42c>
   41fec:	8825883a 	mov	r18,r17
   41ff0:	003ff406 	br	41fc4 <___vfprintf_internal_r+0x67c>
   41ff4:	05c00174 	movhi	r23,5
   41ff8:	e0c00450 	cmplti	r3,fp,17
   41ffc:	d8801e17 	ldw	r2,120(sp)
   42000:	bdc50904 	addi	r23,r23,5156
   42004:	18001e1e 	bne	r3,zero,42080 <___vfprintf_internal_r+0x738>
   42008:	9007883a 	mov	r3,r18
   4200c:	dd400517 	ldw	r21,20(sp)
   42010:	05800404 	movi	r22,16
   42014:	6025883a 	mov	r18,r12
   42018:	00000406 	br	4202c <___vfprintf_internal_r+0x6e4>
   4201c:	e73ffc04 	addi	fp,fp,-16
   42020:	e1400448 	cmpgei	r5,fp,17
   42024:	18c00204 	addi	r3,r3,8
   42028:	28001326 	beq	r5,zero,42078 <___vfprintf_internal_r+0x730>
   4202c:	10800044 	addi	r2,r2,1
   42030:	21000404 	addi	r4,r4,16
   42034:	1dc00015 	stw	r23,0(r3)
   42038:	1d800115 	stw	r22,4(r3)
   4203c:	d9001f15 	stw	r4,124(sp)
   42040:	d8801e15 	stw	r2,120(sp)
   42044:	11400208 	cmpgei	r5,r2,8
   42048:	283ff426 	beq	r5,zero,4201c <___vfprintf_internal_r+0x6d4>
   4204c:	d9400417 	ldw	r5,16(sp)
   42050:	d9801d04 	addi	r6,sp,116
   42054:	a809883a 	mov	r4,r21
   42058:	004913c0 	call	4913c <__sprint_r>
   4205c:	103f451e 	bne	r2,zero,41d74 <___vfprintf_internal_r+0x42c>
   42060:	e73ffc04 	addi	fp,fp,-16
   42064:	e1400448 	cmpgei	r5,fp,17
   42068:	d9001f17 	ldw	r4,124(sp)
   4206c:	d8801e17 	ldw	r2,120(sp)
   42070:	8807883a 	mov	r3,r17
   42074:	283fed1e 	bne	r5,zero,4202c <___vfprintf_internal_r+0x6e4>
   42078:	9019883a 	mov	r12,r18
   4207c:	1825883a 	mov	r18,r3
   42080:	10800044 	addi	r2,r2,1
   42084:	2709883a 	add	r4,r4,fp
   42088:	d8801e15 	stw	r2,120(sp)
   4208c:	95c00015 	stw	r23,0(r18)
   42090:	97000115 	stw	fp,4(r18)
   42094:	d9001f15 	stw	r4,124(sp)
   42098:	10800210 	cmplti	r2,r2,8
   4209c:	103f291e 	bne	r2,zero,41d44 <___vfprintf_internal_r+0x3fc>
   420a0:	d9400417 	ldw	r5,16(sp)
   420a4:	d9000517 	ldw	r4,20(sp)
   420a8:	d9801d04 	addi	r6,sp,116
   420ac:	db000815 	stw	r12,32(sp)
   420b0:	004913c0 	call	4913c <__sprint_r>
   420b4:	103f2f1e 	bne	r2,zero,41d74 <___vfprintf_internal_r+0x42c>
   420b8:	d9001f17 	ldw	r4,124(sp)
   420bc:	db000817 	ldw	r12,32(sp)
   420c0:	003f2006 	br	41d44 <___vfprintf_internal_r+0x3fc>
   420c4:	d8c00717 	ldw	r3,28(sp)
   420c8:	6880020c 	andi	r2,r13,8
   420cc:	19000204 	addi	r4,r3,8
   420d0:	d9000f15 	stw	r4,60(sp)
   420d4:	1003621e 	bne	r2,zero,42e60 <___vfprintf_internal_r+0x1518>
   420d8:	d8800717 	ldw	r2,28(sp)
   420dc:	10c00017 	ldw	r3,0(r2)
   420e0:	10800117 	ldw	r2,4(r2)
   420e4:	d8c00a15 	stw	r3,40(sp)
   420e8:	d8800b15 	stw	r2,44(sp)
   420ec:	ddc00b17 	ldw	r23,44(sp)
   420f0:	dd800a17 	ldw	r22,40(sp)
   420f4:	00a00034 	movhi	r2,32768
   420f8:	10bfffc4 	addi	r2,r2,-1
   420fc:	b8aa703a 	and	r21,r23,r2
   42100:	01dffc34 	movhi	r7,32752
   42104:	01bfffc4 	movi	r6,-1
   42108:	39ffffc4 	addi	r7,r7,-1
   4210c:	b009883a 	mov	r4,r22
   42110:	a80b883a 	mov	r5,r21
   42114:	da000815 	stw	r8,32(sp)
   42118:	db400715 	stw	r13,28(sp)
   4211c:	004e6300 	call	4e630 <__unorddf2>
   42120:	db400717 	ldw	r13,28(sp)
   42124:	da000817 	ldw	r8,32(sp)
   42128:	10044f1e 	bne	r2,zero,43268 <___vfprintf_internal_r+0x1920>
   4212c:	01dffc34 	movhi	r7,32752
   42130:	01bfffc4 	movi	r6,-1
   42134:	39ffffc4 	addi	r7,r7,-1
   42138:	b009883a 	mov	r4,r22
   4213c:	a80b883a 	mov	r5,r21
   42140:	004d4c40 	call	4d4c4 <__ledf2>
   42144:	db400717 	ldw	r13,28(sp)
   42148:	da000817 	ldw	r8,32(sp)
   4214c:	0084460e 	bge	zero,r2,43268 <___vfprintf_internal_r+0x1920>
   42150:	000d883a 	mov	r6,zero
   42154:	000f883a 	mov	r7,zero
   42158:	b009883a 	mov	r4,r22
   4215c:	b80b883a 	mov	r5,r23
   42160:	004d4c40 	call	4d4c4 <__ledf2>
   42164:	db400717 	ldw	r13,28(sp)
   42168:	10052616 	blt	r2,zero,43604 <___vfprintf_internal_r+0x1cbc>
   4216c:	d9001643 	ldbu	r4,89(sp)
   42170:	e0801210 	cmplti	r2,fp,72
   42174:	1005091e 	bne	r2,zero,4359c <___vfprintf_internal_r+0x1c54>
   42178:	05400174 	movhi	r21,5
   4217c:	ad44f504 	addi	r21,r21,5076
   42180:	d8800f17 	ldw	r2,60(sp)
   42184:	00ffdfc4 	movi	r3,-129
   42188:	68c6703a 	and	r3,r13,r3
   4218c:	d8800715 	stw	r2,28(sp)
   42190:	030000c4 	movi	r12,3
   42194:	01c000c4 	movi	r7,3
   42198:	0011883a 	mov	r8,zero
   4219c:	d8000815 	stw	zero,32(sp)
   421a0:	003f7506 	br	41f78 <___vfprintf_internal_r+0x630>
   421a4:	d8c00717 	ldw	r3,28(sp)
   421a8:	6880040c 	andi	r2,r13,16
   421ac:	1d800017 	ldw	r22,0(r3)
   421b0:	18c00104 	addi	r3,r3,4
   421b4:	d8c00715 	stw	r3,28(sp)
   421b8:	10002a1e 	bne	r2,zero,42264 <___vfprintf_internal_r+0x91c>
   421bc:	6880100c 	andi	r2,r13,64
   421c0:	10002826 	beq	r2,zero,42264 <___vfprintf_internal_r+0x91c>
   421c4:	b5bfffcc 	andi	r22,r22,65535
   421c8:	b5a0001c 	xori	r22,r22,32768
   421cc:	b5a00004 	addi	r22,r22,-32768
   421d0:	b02fd7fa 	srai	r23,r22,31
   421d4:	b805883a 	mov	r2,r23
   421d8:	103f1d0e 	bge	r2,zero,41e50 <___vfprintf_internal_r+0x508>
   421dc:	b004c03a 	cmpne	r2,r22,zero
   421e0:	05efc83a 	sub	r23,zero,r23
   421e4:	b8afc83a 	sub	r23,r23,r2
   421e8:	05adc83a 	sub	r22,zero,r22
   421ec:	01000b44 	movi	r4,45
   421f0:	00800044 	movi	r2,1
   421f4:	003f3a06 	br	41ee0 <___vfprintf_internal_r+0x598>
   421f8:	d8c00717 	ldw	r3,28(sp)
   421fc:	6880040c 	andi	r2,r13,16
   42200:	1d800017 	ldw	r22,0(r3)
   42204:	18c00104 	addi	r3,r3,4
   42208:	d8c00715 	stw	r3,28(sp)
   4220c:	1000031e 	bne	r2,zero,4221c <___vfprintf_internal_r+0x8d4>
   42210:	6880100c 	andi	r2,r13,64
   42214:	10000126 	beq	r2,zero,4221c <___vfprintf_internal_r+0x8d4>
   42218:	b5bfffcc 	andi	r22,r22,65535
   4221c:	002f883a 	mov	r23,zero
   42220:	00800044 	movi	r2,1
   42224:	003f2d06 	br	41edc <___vfprintf_internal_r+0x594>
   42228:	d8c00717 	ldw	r3,28(sp)
   4222c:	6880040c 	andi	r2,r13,16
   42230:	1d800017 	ldw	r22,0(r3)
   42234:	18c00104 	addi	r3,r3,4
   42238:	d8c00715 	stw	r3,28(sp)
   4223c:	1000031e 	bne	r2,zero,4224c <___vfprintf_internal_r+0x904>
   42240:	6880100c 	andi	r2,r13,64
   42244:	10000126 	beq	r2,zero,4224c <___vfprintf_internal_r+0x904>
   42248:	b5bfffcc 	andi	r22,r22,65535
   4224c:	002f883a 	mov	r23,zero
   42250:	0005883a 	mov	r2,zero
   42254:	003f2106 	br	41edc <___vfprintf_internal_r+0x594>
   42258:	d9000517 	ldw	r4,20(sp)
   4225c:	0045f200 	call	45f20 <__sinit>
   42260:	003dd206 	br	419ac <___vfprintf_internal_r+0x64>
   42264:	b02fd7fa 	srai	r23,r22,31
   42268:	b805883a 	mov	r2,r23
   4226c:	003ef706 	br	41e4c <___vfprintf_internal_r+0x504>
   42270:	181b883a 	mov	r13,r3
   42274:	b803681e 	bne	r23,zero,43018 <___vfprintf_internal_r+0x16d0>
   42278:	b08002a8 	cmpgeui	r2,r22,10
   4227c:	1003661e 	bne	r2,zero,43018 <___vfprintf_internal_r+0x16d0>
   42280:	b5800c04 	addi	r22,r22,48
   42284:	dd8029c5 	stb	r22,167(sp)
   42288:	6807883a 	mov	r3,r13
   4228c:	01c00044 	movi	r7,1
   42290:	dd4029c4 	addi	r21,sp,167
   42294:	003f3406 	br	41f68 <___vfprintf_internal_r+0x620>
   42298:	d8800717 	ldw	r2,28(sp)
   4229c:	14000017 	ldw	r16,0(r2)
   422a0:	10800104 	addi	r2,r2,4
   422a4:	8002e90e 	bge	r16,zero,42e4c <___vfprintf_internal_r+0x1504>
   422a8:	0421c83a 	sub	r16,zero,r16
   422ac:	d8800715 	stw	r2,28(sp)
   422b0:	a2c00007 	ldb	r11,0(r20)
   422b4:	6b400114 	ori	r13,r13,4
   422b8:	003df306 	br	41a88 <___vfprintf_internal_r+0x140>
   422bc:	a7000007 	ldb	fp,0(r20)
   422c0:	a0c00044 	addi	r3,r20,1
   422c4:	e0800aa0 	cmpeqi	r2,fp,42
   422c8:	10066f1e 	bne	r2,zero,43c88 <___vfprintf_internal_r+0x2340>
   422cc:	e0bff404 	addi	r2,fp,-48
   422d0:	110002b0 	cmpltui	r4,r2,10
   422d4:	1829883a 	mov	r20,r3
   422d8:	0011883a 	mov	r8,zero
   422dc:	203dec26 	beq	r4,zero,41a90 <___vfprintf_internal_r+0x148>
   422e0:	a7000007 	ldb	fp,0(r20)
   422e4:	420002a4 	muli	r8,r8,10
   422e8:	a5000044 	addi	r20,r20,1
   422ec:	4091883a 	add	r8,r8,r2
   422f0:	e0bff404 	addi	r2,fp,-48
   422f4:	10c002b0 	cmpltui	r3,r2,10
   422f8:	183ff91e 	bne	r3,zero,422e0 <___vfprintf_internal_r+0x998>
   422fc:	003de406 	br	41a90 <___vfprintf_internal_r+0x148>
   42300:	a2c00007 	ldb	r11,0(r20)
   42304:	6b402014 	ori	r13,r13,128
   42308:	003ddf06 	br	41a88 <___vfprintf_internal_r+0x140>
   4230c:	00800ac4 	movi	r2,43
   42310:	a2c00007 	ldb	r11,0(r20)
   42314:	d8801645 	stb	r2,89(sp)
   42318:	003ddb06 	br	41a88 <___vfprintf_internal_r+0x140>
   4231c:	a2c00007 	ldb	r11,0(r20)
   42320:	6b400054 	ori	r13,r13,1
   42324:	003dd806 	br	41a88 <___vfprintf_internal_r+0x140>
   42328:	d8801647 	ldb	r2,89(sp)
   4232c:	a7000003 	ldbu	fp,0(r20)
   42330:	10000c1e 	bne	r2,zero,42364 <___vfprintf_internal_r+0xa1c>
   42334:	e2c03fcc 	andi	r11,fp,255
   42338:	00800804 	movi	r2,32
   4233c:	5ac0201c 	xori	r11,r11,128
   42340:	d8801645 	stb	r2,89(sp)
   42344:	5affe004 	addi	r11,r11,-128
   42348:	003dcf06 	br	41a88 <___vfprintf_internal_r+0x140>
   4234c:	a2c00007 	ldb	r11,0(r20)
   42350:	58801b18 	cmpnei	r2,r11,108
   42354:	1002bb1e 	bne	r2,zero,42e44 <___vfprintf_internal_r+0x14fc>
   42358:	a7000043 	ldbu	fp,1(r20)
   4235c:	6b400814 	ori	r13,r13,32
   42360:	a5000044 	addi	r20,r20,1
   42364:	e2c03fcc 	andi	r11,fp,255
   42368:	5ac0201c 	xori	r11,r11,128
   4236c:	5affe004 	addi	r11,r11,-128
   42370:	003dc506 	br	41a88 <___vfprintf_internal_r+0x140>
   42374:	a2c00007 	ldb	r11,0(r20)
   42378:	6b400214 	ori	r13,r13,8
   4237c:	003dc206 	br	41a88 <___vfprintf_internal_r+0x140>
   42380:	a2c00007 	ldb	r11,0(r20)
   42384:	6b401014 	ori	r13,r13,64
   42388:	003dbf06 	br	41a88 <___vfprintf_internal_r+0x140>
   4238c:	d8c00717 	ldw	r3,28(sp)
   42390:	d8001645 	stb	zero,89(sp)
   42394:	03000044 	movi	r12,1
   42398:	18800017 	ldw	r2,0(r3)
   4239c:	18c00104 	addi	r3,r3,4
   423a0:	d8c00715 	stw	r3,28(sp)
   423a4:	d8802005 	stb	r2,128(sp)
   423a8:	01c00044 	movi	r7,1
   423ac:	dd402004 	addi	r21,sp,128
   423b0:	003e2a06 	br	41c5c <___vfprintf_internal_r+0x314>
   423b4:	d8800717 	ldw	r2,28(sp)
   423b8:	d8001645 	stb	zero,89(sp)
   423bc:	15400017 	ldw	r21,0(r2)
   423c0:	15800104 	addi	r22,r2,4
   423c4:	a802e226 	beq	r21,zero,42f50 <___vfprintf_internal_r+0x1608>
   423c8:	db400815 	stw	r13,32(sp)
   423cc:	40bfffe0 	cmpeqi	r2,r8,-1
   423d0:	10046b1e 	bne	r2,zero,43580 <___vfprintf_internal_r+0x1c38>
   423d4:	400d883a 	mov	r6,r8
   423d8:	000b883a 	mov	r5,zero
   423dc:	a809883a 	mov	r4,r21
   423e0:	da000715 	stw	r8,28(sp)
   423e4:	00473780 	call	47378 <memchr>
   423e8:	da000717 	ldw	r8,28(sp)
   423ec:	db400817 	ldw	r13,32(sp)
   423f0:	1005b126 	beq	r2,zero,43ab8 <___vfprintf_internal_r+0x2170>
   423f4:	154fc83a 	sub	r7,r2,r21
   423f8:	3819883a 	mov	r12,r7
   423fc:	dd800715 	stw	r22,28(sp)
   42400:	003e1606 	br	41c5c <___vfprintf_internal_r+0x314>
   42404:	a2c00007 	ldb	r11,0(r20)
   42408:	6b400814 	ori	r13,r13,32
   4240c:	003d9e06 	br	41a88 <___vfprintf_internal_r+0x140>
   42410:	d8c00717 	ldw	r3,28(sp)
   42414:	009e0c04 	movi	r2,30768
   42418:	01000174 	movhi	r4,5
   4241c:	d880168d 	sth	r2,90(sp)
   42420:	18800104 	addi	r2,r3,4
   42424:	d8800715 	stw	r2,28(sp)
   42428:	2084fd04 	addi	r2,r4,5108
   4242c:	d8800e15 	stw	r2,56(sp)
   42430:	1d800017 	ldw	r22,0(r3)
   42434:	002f883a 	mov	r23,zero
   42438:	6b400094 	ori	r13,r13,2
   4243c:	00800084 	movi	r2,2
   42440:	07001e04 	movi	fp,120
   42444:	003ea506 	br	41edc <___vfprintf_internal_r+0x594>
   42448:	6880080c 	andi	r2,r13,32
   4244c:	10028926 	beq	r2,zero,42e74 <___vfprintf_internal_r+0x152c>
   42450:	d9000617 	ldw	r4,24(sp)
   42454:	d8800717 	ldw	r2,28(sp)
   42458:	2007d7fa 	srai	r3,r4,31
   4245c:	10800017 	ldw	r2,0(r2)
   42460:	11000015 	stw	r4,0(r2)
   42464:	10c00115 	stw	r3,4(r2)
   42468:	d8800717 	ldw	r2,28(sp)
   4246c:	10800104 	addi	r2,r2,4
   42470:	d8800715 	stw	r2,28(sp)
   42474:	003d6e06 	br	41a30 <___vfprintf_internal_r+0xe8>
   42478:	e2c01990 	cmplti	r11,fp,102
   4247c:	5800ed1e 	bne	r11,zero,42834 <___vfprintf_internal_r+0xeec>
   42480:	d9000a17 	ldw	r4,40(sp)
   42484:	d9400b17 	ldw	r5,44(sp)
   42488:	000d883a 	mov	r6,zero
   4248c:	000f883a 	mov	r7,zero
   42490:	db001015 	stw	r12,64(sp)
   42494:	d8c00f15 	stw	r3,60(sp)
   42498:	004d3340 	call	4d334 <__eqdf2>
   4249c:	d8c00f17 	ldw	r3,60(sp)
   424a0:	db001017 	ldw	r12,64(sp)
   424a4:	1001a61e 	bne	r2,zero,42b40 <___vfprintf_internal_r+0x11f8>
   424a8:	d8801e17 	ldw	r2,120(sp)
   424ac:	01000174 	movhi	r4,5
   424b0:	21050404 	addi	r4,r4,5136
   424b4:	10800044 	addi	r2,r2,1
   424b8:	b5800044 	addi	r22,r22,1
   424bc:	91000015 	stw	r4,0(r18)
   424c0:	01000044 	movi	r4,1
   424c4:	d8801e15 	stw	r2,120(sp)
   424c8:	91000115 	stw	r4,4(r18)
   424cc:	dd801f15 	stw	r22,124(sp)
   424d0:	10800208 	cmpgei	r2,r2,8
   424d4:	1003c41e 	bne	r2,zero,433e8 <___vfprintf_internal_r+0x1aa0>
   424d8:	94800204 	addi	r18,r18,8
   424dc:	d8801717 	ldw	r2,92(sp)
   424e0:	d9000917 	ldw	r4,36(sp)
   424e4:	11000416 	blt	r2,r4,424f8 <___vfprintf_internal_r+0xbb0>
   424e8:	1880004c 	andi	r2,r3,1
   424ec:	1000021e 	bne	r2,zero,424f8 <___vfprintf_internal_r+0xbb0>
   424f0:	b009883a 	mov	r4,r22
   424f4:	003e0f06 	br	41d34 <___vfprintf_internal_r+0x3ec>
   424f8:	d8800d17 	ldw	r2,52(sp)
   424fc:	d9400c17 	ldw	r5,48(sp)
   42500:	90800015 	stw	r2,0(r18)
   42504:	d8801e17 	ldw	r2,120(sp)
   42508:	2d89883a 	add	r4,r5,r22
   4250c:	91400115 	stw	r5,4(r18)
   42510:	10800044 	addi	r2,r2,1
   42514:	d8801e15 	stw	r2,120(sp)
   42518:	d9001f15 	stw	r4,124(sp)
   4251c:	10800208 	cmpgei	r2,r2,8
   42520:	10026b1e 	bne	r2,zero,42ed0 <___vfprintf_internal_r+0x1588>
   42524:	94800204 	addi	r18,r18,8
   42528:	d8800917 	ldw	r2,36(sp)
   4252c:	15ffffc4 	addi	r23,r2,-1
   42530:	05fe000e 	bge	zero,r23,41d34 <___vfprintf_internal_r+0x3ec>
   42534:	05800174 	movhi	r22,5
   42538:	b9400450 	cmplti	r5,r23,17
   4253c:	d8801e17 	ldw	r2,120(sp)
   42540:	b5850504 	addi	r22,r22,5140
   42544:	2801441e 	bne	r5,zero,42a58 <___vfprintf_internal_r+0x1110>
   42548:	900d883a 	mov	r6,r18
   4254c:	980b883a 	mov	r5,r19
   42550:	1825883a 	mov	r18,r3
   42554:	b02b883a 	mov	r21,r22
   42558:	8027883a 	mov	r19,r16
   4255c:	a02d883a 	mov	r22,r20
   42560:	b821883a 	mov	r16,r23
   42564:	07000404 	movi	fp,16
   42568:	6029883a 	mov	r20,r12
   4256c:	282f883a 	mov	r23,r5
   42570:	3007883a 	mov	r3,r6
   42574:	00000406 	br	42588 <___vfprintf_internal_r+0xc40>
   42578:	18c00204 	addi	r3,r3,8
   4257c:	843ffc04 	addi	r16,r16,-16
   42580:	81400448 	cmpgei	r5,r16,17
   42584:	28012a26 	beq	r5,zero,42a30 <___vfprintf_internal_r+0x10e8>
   42588:	10800044 	addi	r2,r2,1
   4258c:	21000404 	addi	r4,r4,16
   42590:	1d400015 	stw	r21,0(r3)
   42594:	1f000115 	stw	fp,4(r3)
   42598:	d9001f15 	stw	r4,124(sp)
   4259c:	d8801e15 	stw	r2,120(sp)
   425a0:	11400208 	cmpgei	r5,r2,8
   425a4:	283ff426 	beq	r5,zero,42578 <___vfprintf_internal_r+0xc30>
   425a8:	d9400417 	ldw	r5,16(sp)
   425ac:	d9000517 	ldw	r4,20(sp)
   425b0:	d9801d04 	addi	r6,sp,116
   425b4:	004913c0 	call	4913c <__sprint_r>
   425b8:	103dee1e 	bne	r2,zero,41d74 <___vfprintf_internal_r+0x42c>
   425bc:	d9001f17 	ldw	r4,124(sp)
   425c0:	d8801e17 	ldw	r2,120(sp)
   425c4:	8807883a 	mov	r3,r17
   425c8:	003fec06 	br	4257c <___vfprintf_internal_r+0xc34>
   425cc:	832fc83a 	sub	r23,r16,r12
   425d0:	05fdca0e 	bge	zero,r23,41cfc <___vfprintf_internal_r+0x3b4>
   425d4:	b009883a 	mov	r4,r22
   425d8:	b9400450 	cmplti	r5,r23,17
   425dc:	05800174 	movhi	r22,5
   425e0:	d8801e17 	ldw	r2,120(sp)
   425e4:	b5850504 	addi	r22,r22,5140
   425e8:	28002e1e 	bne	r5,zero,426a4 <___vfprintf_internal_r+0xd5c>
   425ec:	d8c00f15 	stw	r3,60(sp)
   425f0:	dc001015 	stw	r16,64(sp)
   425f4:	9007883a 	mov	r3,r18
   425f8:	b821883a 	mov	r16,r23
   425fc:	b025883a 	mov	r18,r22
   42600:	982f883a 	mov	r23,r19
   42604:	a02d883a 	mov	r22,r20
   42608:	03400404 	movi	r13,16
   4260c:	da001215 	stw	r8,72(sp)
   42610:	6029883a 	mov	r20,r12
   42614:	3827883a 	mov	r19,r7
   42618:	00000406 	br	4262c <___vfprintf_internal_r+0xce4>
   4261c:	843ffc04 	addi	r16,r16,-16
   42620:	81400448 	cmpgei	r5,r16,17
   42624:	18c00204 	addi	r3,r3,8
   42628:	28001426 	beq	r5,zero,4267c <___vfprintf_internal_r+0xd34>
   4262c:	10800044 	addi	r2,r2,1
   42630:	21000404 	addi	r4,r4,16
   42634:	1c800015 	stw	r18,0(r3)
   42638:	1b400115 	stw	r13,4(r3)
   4263c:	d9001f15 	stw	r4,124(sp)
   42640:	d8801e15 	stw	r2,120(sp)
   42644:	11400208 	cmpgei	r5,r2,8
   42648:	283ff426 	beq	r5,zero,4261c <___vfprintf_internal_r+0xcd4>
   4264c:	d9400417 	ldw	r5,16(sp)
   42650:	d9000517 	ldw	r4,20(sp)
   42654:	d9801d04 	addi	r6,sp,116
   42658:	004913c0 	call	4913c <__sprint_r>
   4265c:	103dc51e 	bne	r2,zero,41d74 <___vfprintf_internal_r+0x42c>
   42660:	843ffc04 	addi	r16,r16,-16
   42664:	81400448 	cmpgei	r5,r16,17
   42668:	d9001f17 	ldw	r4,124(sp)
   4266c:	d8801e17 	ldw	r2,120(sp)
   42670:	8807883a 	mov	r3,r17
   42674:	03400404 	movi	r13,16
   42678:	283fec1e 	bne	r5,zero,4262c <___vfprintf_internal_r+0xce4>
   4267c:	980f883a 	mov	r7,r19
   42680:	a019883a 	mov	r12,r20
   42684:	b827883a 	mov	r19,r23
   42688:	b029883a 	mov	r20,r22
   4268c:	802f883a 	mov	r23,r16
   42690:	902d883a 	mov	r22,r18
   42694:	da001217 	ldw	r8,72(sp)
   42698:	1825883a 	mov	r18,r3
   4269c:	dc001017 	ldw	r16,64(sp)
   426a0:	d8c00f17 	ldw	r3,60(sp)
   426a4:	10800044 	addi	r2,r2,1
   426a8:	b909883a 	add	r4,r23,r4
   426ac:	d8801e15 	stw	r2,120(sp)
   426b0:	95800015 	stw	r22,0(r18)
   426b4:	95c00115 	stw	r23,4(r18)
   426b8:	d9001f15 	stw	r4,124(sp)
   426bc:	10800208 	cmpgei	r2,r2,8
   426c0:	1003621e 	bne	r2,zero,4344c <___vfprintf_internal_r+0x1b04>
   426c4:	41efc83a 	sub	r23,r8,r7
   426c8:	94800204 	addi	r18,r18,8
   426cc:	202d883a 	mov	r22,r4
   426d0:	05fd8c0e 	bge	zero,r23,41d04 <___vfprintf_internal_r+0x3bc>
   426d4:	b9400450 	cmplti	r5,r23,17
   426d8:	d8801e17 	ldw	r2,120(sp)
   426dc:	b009883a 	mov	r4,r22
   426e0:	2803b11e 	bne	r5,zero,435a8 <___vfprintf_internal_r+0x1c60>
   426e4:	d8c00f15 	stw	r3,60(sp)
   426e8:	dc001015 	stw	r16,64(sp)
   426ec:	9007883a 	mov	r3,r18
   426f0:	b821883a 	mov	r16,r23
   426f4:	a02d883a 	mov	r22,r20
   426f8:	982f883a 	mov	r23,r19
   426fc:	9825883a 	mov	r18,r19
   42700:	02000404 	movi	r8,16
   42704:	6029883a 	mov	r20,r12
   42708:	3827883a 	mov	r19,r7
   4270c:	00000406 	br	42720 <___vfprintf_internal_r+0xdd8>
   42710:	843ffc04 	addi	r16,r16,-16
   42714:	81400448 	cmpgei	r5,r16,17
   42718:	18c00204 	addi	r3,r3,8
   4271c:	28001426 	beq	r5,zero,42770 <___vfprintf_internal_r+0xe28>
   42720:	10800044 	addi	r2,r2,1
   42724:	21000404 	addi	r4,r4,16
   42728:	1c800015 	stw	r18,0(r3)
   4272c:	1a000115 	stw	r8,4(r3)
   42730:	d9001f15 	stw	r4,124(sp)
   42734:	d8801e15 	stw	r2,120(sp)
   42738:	11400208 	cmpgei	r5,r2,8
   4273c:	283ff426 	beq	r5,zero,42710 <___vfprintf_internal_r+0xdc8>
   42740:	d9400417 	ldw	r5,16(sp)
   42744:	d9000517 	ldw	r4,20(sp)
   42748:	d9801d04 	addi	r6,sp,116
   4274c:	004913c0 	call	4913c <__sprint_r>
   42750:	103d881e 	bne	r2,zero,41d74 <___vfprintf_internal_r+0x42c>
   42754:	843ffc04 	addi	r16,r16,-16
   42758:	81400448 	cmpgei	r5,r16,17
   4275c:	d9001f17 	ldw	r4,124(sp)
   42760:	d8801e17 	ldw	r2,120(sp)
   42764:	8807883a 	mov	r3,r17
   42768:	02000404 	movi	r8,16
   4276c:	283fec1e 	bne	r5,zero,42720 <___vfprintf_internal_r+0xdd8>
   42770:	980f883a 	mov	r7,r19
   42774:	a019883a 	mov	r12,r20
   42778:	9027883a 	mov	r19,r18
   4277c:	b029883a 	mov	r20,r22
   42780:	1825883a 	mov	r18,r3
   42784:	b82d883a 	mov	r22,r23
   42788:	d8c00f17 	ldw	r3,60(sp)
   4278c:	802f883a 	mov	r23,r16
   42790:	dc001017 	ldw	r16,64(sp)
   42794:	10800044 	addi	r2,r2,1
   42798:	b909883a 	add	r4,r23,r4
   4279c:	d8801e15 	stw	r2,120(sp)
   427a0:	95800015 	stw	r22,0(r18)
   427a4:	95c00115 	stw	r23,4(r18)
   427a8:	d9001f15 	stw	r4,124(sp)
   427ac:	10800208 	cmpgei	r2,r2,8
   427b0:	10018a1e 	bne	r2,zero,42ddc <___vfprintf_internal_r+0x1494>
   427b4:	94800204 	addi	r18,r18,8
   427b8:	202d883a 	mov	r22,r4
   427bc:	003d5106 	br	41d04 <___vfprintf_internal_r+0x3bc>
   427c0:	11400060 	cmpeqi	r5,r2,1
   427c4:	181b883a 	mov	r13,r3
   427c8:	002d883a 	mov	r22,zero
   427cc:	283eac1e 	bne	r5,zero,42280 <___vfprintf_internal_r+0x938>
   427d0:	108000a0 	cmpeqi	r2,r2,2
   427d4:	002f883a 	mov	r23,zero
   427d8:	103dcd26 	beq	r2,zero,41f10 <___vfprintf_internal_r+0x5c8>
   427dc:	d9400e17 	ldw	r5,56(sp)
   427e0:	882b883a 	mov	r21,r17
   427e4:	b08003cc 	andi	r2,r22,15
   427e8:	b806973a 	slli	r3,r23,28
   427ec:	b02cd13a 	srli	r22,r22,4
   427f0:	2885883a 	add	r2,r5,r2
   427f4:	10800003 	ldbu	r2,0(r2)
   427f8:	b82ed13a 	srli	r23,r23,4
   427fc:	1dacb03a 	or	r22,r3,r22
   42800:	a8bfffc5 	stb	r2,-1(r21)
   42804:	b5c4b03a 	or	r2,r22,r23
   42808:	ad7fffc4 	addi	r21,r21,-1
   4280c:	103ff51e 	bne	r2,zero,427e4 <___vfprintf_internal_r+0xe9c>
   42810:	8d4fc83a 	sub	r7,r17,r21
   42814:	6807883a 	mov	r3,r13
   42818:	003dd306 	br	41f68 <___vfprintf_internal_r+0x620>
   4281c:	d9400417 	ldw	r5,16(sp)
   42820:	d9000517 	ldw	r4,20(sp)
   42824:	d9801d04 	addi	r6,sp,116
   42828:	004913c0 	call	4913c <__sprint_r>
   4282c:	103d4b26 	beq	r2,zero,41d5c <___vfprintf_internal_r+0x414>
   42830:	003d5006 	br	41d74 <___vfprintf_internal_r+0x42c>
   42834:	d8800917 	ldw	r2,36(sp)
   42838:	95c00204 	addi	r23,r18,8
   4283c:	10800088 	cmpgei	r2,r2,2
   42840:	10012126 	beq	r2,zero,42cc8 <___vfprintf_internal_r+0x1380>
   42844:	da001e17 	ldw	r8,120(sp)
   42848:	00800044 	movi	r2,1
   4284c:	b5800044 	addi	r22,r22,1
   42850:	42000044 	addi	r8,r8,1
   42854:	90800115 	stw	r2,4(r18)
   42858:	95400015 	stw	r21,0(r18)
   4285c:	dd801f15 	stw	r22,124(sp)
   42860:	da001e15 	stw	r8,120(sp)
   42864:	40800210 	cmplti	r2,r8,8
   42868:	10022a26 	beq	r2,zero,43114 <___vfprintf_internal_r+0x17cc>
   4286c:	d8800c17 	ldw	r2,48(sp)
   42870:	d9000d17 	ldw	r4,52(sp)
   42874:	42000044 	addi	r8,r8,1
   42878:	15b9883a 	add	fp,r2,r22
   4287c:	b8800115 	stw	r2,4(r23)
   42880:	b9000015 	stw	r4,0(r23)
   42884:	df001f15 	stw	fp,124(sp)
   42888:	da001e15 	stw	r8,120(sp)
   4288c:	40800208 	cmpgei	r2,r8,8
   42890:	10022d1e 	bne	r2,zero,43148 <___vfprintf_internal_r+0x1800>
   42894:	bdc00204 	addi	r23,r23,8
   42898:	d9000a17 	ldw	r4,40(sp)
   4289c:	d9400b17 	ldw	r5,44(sp)
   428a0:	000d883a 	mov	r6,zero
   428a4:	000f883a 	mov	r7,zero
   428a8:	db001015 	stw	r12,64(sp)
   428ac:	d8c00f15 	stw	r3,60(sp)
   428b0:	da000815 	stw	r8,32(sp)
   428b4:	004d3340 	call	4d334 <__eqdf2>
   428b8:	d8c00917 	ldw	r3,36(sp)
   428bc:	da000817 	ldw	r8,32(sp)
   428c0:	db001017 	ldw	r12,64(sp)
   428c4:	1cbfffc4 	addi	r18,r3,-1
   428c8:	d8c00f17 	ldw	r3,60(sp)
   428cc:	10011a26 	beq	r2,zero,42d38 <___vfprintf_internal_r+0x13f0>
   428d0:	aa400044 	addi	r9,r21,1
   428d4:	42000044 	addi	r8,r8,1
   428d8:	e4b9883a 	add	fp,fp,r18
   428dc:	ba400015 	stw	r9,0(r23)
   428e0:	bc800115 	stw	r18,4(r23)
   428e4:	df001f15 	stw	fp,124(sp)
   428e8:	da001e15 	stw	r8,120(sp)
   428ec:	40800208 	cmpgei	r2,r8,8
   428f0:	1002c91e 	bne	r2,zero,43418 <___vfprintf_internal_r+0x1ad0>
   428f4:	bdc00204 	addi	r23,r23,8
   428f8:	d9401117 	ldw	r5,68(sp)
   428fc:	42000044 	addi	r8,r8,1
   42900:	d8801904 	addi	r2,sp,100
   42904:	2f09883a 	add	r4,r5,fp
   42908:	da001e15 	stw	r8,120(sp)
   4290c:	b8800015 	stw	r2,0(r23)
   42910:	b9400115 	stw	r5,4(r23)
   42914:	d9001f15 	stw	r4,124(sp)
   42918:	42000208 	cmpgei	r8,r8,8
   4291c:	40013d1e 	bne	r8,zero,42e14 <___vfprintf_internal_r+0x14cc>
   42920:	bc800204 	addi	r18,r23,8
   42924:	003d0306 	br	41d34 <___vfprintf_internal_r+0x3ec>
   42928:	05c00174 	movhi	r23,5
   4292c:	b1400450 	cmplti	r5,r22,17
   42930:	d9001f17 	ldw	r4,124(sp)
   42934:	d8801e17 	ldw	r2,120(sp)
   42938:	bdc50904 	addi	r23,r23,5156
   4293c:	2800321e 	bne	r5,zero,42a08 <___vfprintf_internal_r+0x10c0>
   42940:	d8c01215 	stw	r3,72(sp)
   42944:	dc001315 	stw	r16,76(sp)
   42948:	9007883a 	mov	r3,r18
   4294c:	b021883a 	mov	r16,r22
   42950:	b825883a 	mov	r18,r23
   42954:	a02d883a 	mov	r22,r20
   42958:	982f883a 	mov	r23,r19
   4295c:	03c00404 	movi	r15,16
   42960:	db800f15 	stw	r14,60(sp)
   42964:	db401015 	stw	r13,64(sp)
   42968:	da001415 	stw	r8,80(sp)
   4296c:	6029883a 	mov	r20,r12
   42970:	3827883a 	mov	r19,r7
   42974:	00000406 	br	42988 <___vfprintf_internal_r+0x1040>
   42978:	843ffc04 	addi	r16,r16,-16
   4297c:	81400448 	cmpgei	r5,r16,17
   42980:	18c00204 	addi	r3,r3,8
   42984:	28001426 	beq	r5,zero,429d8 <___vfprintf_internal_r+0x1090>
   42988:	10800044 	addi	r2,r2,1
   4298c:	21000404 	addi	r4,r4,16
   42990:	1c800015 	stw	r18,0(r3)
   42994:	1bc00115 	stw	r15,4(r3)
   42998:	d9001f15 	stw	r4,124(sp)
   4299c:	d8801e15 	stw	r2,120(sp)
   429a0:	11400208 	cmpgei	r5,r2,8
   429a4:	283ff426 	beq	r5,zero,42978 <___vfprintf_internal_r+0x1030>
   429a8:	d9400417 	ldw	r5,16(sp)
   429ac:	d9000517 	ldw	r4,20(sp)
   429b0:	d9801d04 	addi	r6,sp,116
   429b4:	004913c0 	call	4913c <__sprint_r>
   429b8:	103cee1e 	bne	r2,zero,41d74 <___vfprintf_internal_r+0x42c>
   429bc:	843ffc04 	addi	r16,r16,-16
   429c0:	81400448 	cmpgei	r5,r16,17
   429c4:	d9001f17 	ldw	r4,124(sp)
   429c8:	d8801e17 	ldw	r2,120(sp)
   429cc:	8807883a 	mov	r3,r17
   429d0:	03c00404 	movi	r15,16
   429d4:	283fec1e 	bne	r5,zero,42988 <___vfprintf_internal_r+0x1040>
   429d8:	980f883a 	mov	r7,r19
   429dc:	a019883a 	mov	r12,r20
   429e0:	b827883a 	mov	r19,r23
   429e4:	b029883a 	mov	r20,r22
   429e8:	902f883a 	mov	r23,r18
   429ec:	802d883a 	mov	r22,r16
   429f0:	1825883a 	mov	r18,r3
   429f4:	db800f17 	ldw	r14,60(sp)
   429f8:	db401017 	ldw	r13,64(sp)
   429fc:	da001417 	ldw	r8,80(sp)
   42a00:	dc001317 	ldw	r16,76(sp)
   42a04:	d8c01217 	ldw	r3,72(sp)
   42a08:	10800044 	addi	r2,r2,1
   42a0c:	b109883a 	add	r4,r22,r4
   42a10:	d8801e15 	stw	r2,120(sp)
   42a14:	95c00015 	stw	r23,0(r18)
   42a18:	95800115 	stw	r22,4(r18)
   42a1c:	d9001f15 	stw	r4,124(sp)
   42a20:	10800208 	cmpgei	r2,r2,8
   42a24:	1001d51e 	bne	r2,zero,4317c <___vfprintf_internal_r+0x1834>
   42a28:	94800204 	addi	r18,r18,8
   42a2c:	003c9506 	br	41c84 <___vfprintf_internal_r+0x33c>
   42a30:	180d883a 	mov	r6,r3
   42a34:	b80b883a 	mov	r5,r23
   42a38:	9007883a 	mov	r3,r18
   42a3c:	a019883a 	mov	r12,r20
   42a40:	802f883a 	mov	r23,r16
   42a44:	b029883a 	mov	r20,r22
   42a48:	9821883a 	mov	r16,r19
   42a4c:	a82d883a 	mov	r22,r21
   42a50:	2827883a 	mov	r19,r5
   42a54:	3025883a 	mov	r18,r6
   42a58:	10800044 	addi	r2,r2,1
   42a5c:	95800015 	stw	r22,0(r18)
   42a60:	95c00115 	stw	r23,4(r18)
   42a64:	25c9883a 	add	r4,r4,r23
   42a68:	d8801e15 	stw	r2,120(sp)
   42a6c:	d9001f15 	stw	r4,124(sp)
   42a70:	10800208 	cmpgei	r2,r2,8
   42a74:	103cae26 	beq	r2,zero,41d30 <___vfprintf_internal_r+0x3e8>
   42a78:	d9400417 	ldw	r5,16(sp)
   42a7c:	d9000517 	ldw	r4,20(sp)
   42a80:	d9801d04 	addi	r6,sp,116
   42a84:	db000f15 	stw	r12,60(sp)
   42a88:	d8c00815 	stw	r3,32(sp)
   42a8c:	004913c0 	call	4913c <__sprint_r>
   42a90:	103cb81e 	bne	r2,zero,41d74 <___vfprintf_internal_r+0x42c>
   42a94:	d9001f17 	ldw	r4,124(sp)
   42a98:	d8c00817 	ldw	r3,32(sp)
   42a9c:	db000f17 	ldw	r12,60(sp)
   42aa0:	8825883a 	mov	r18,r17
   42aa4:	003ca306 	br	41d34 <___vfprintf_internal_r+0x3ec>
   42aa8:	d9400417 	ldw	r5,16(sp)
   42aac:	d9000517 	ldw	r4,20(sp)
   42ab0:	d9801d04 	addi	r6,sp,116
   42ab4:	db001515 	stw	r12,84(sp)
   42ab8:	d9c01415 	stw	r7,80(sp)
   42abc:	da001315 	stw	r8,76(sp)
   42ac0:	d8c01215 	stw	r3,72(sp)
   42ac4:	db401015 	stw	r13,64(sp)
   42ac8:	db800f15 	stw	r14,60(sp)
   42acc:	004913c0 	call	4913c <__sprint_r>
   42ad0:	103ca81e 	bne	r2,zero,41d74 <___vfprintf_internal_r+0x42c>
   42ad4:	dd801f17 	ldw	r22,124(sp)
   42ad8:	db001517 	ldw	r12,84(sp)
   42adc:	d9c01417 	ldw	r7,80(sp)
   42ae0:	da001317 	ldw	r8,76(sp)
   42ae4:	d8c01217 	ldw	r3,72(sp)
   42ae8:	db401017 	ldw	r13,64(sp)
   42aec:	db800f17 	ldw	r14,60(sp)
   42af0:	8825883a 	mov	r18,r17
   42af4:	003c7206 	br	41cc0 <___vfprintf_internal_r+0x378>
   42af8:	d9400417 	ldw	r5,16(sp)
   42afc:	d9000517 	ldw	r4,20(sp)
   42b00:	d9801d04 	addi	r6,sp,116
   42b04:	db001415 	stw	r12,80(sp)
   42b08:	d9c01315 	stw	r7,76(sp)
   42b0c:	da001215 	stw	r8,72(sp)
   42b10:	d8c01015 	stw	r3,64(sp)
   42b14:	db400f15 	stw	r13,60(sp)
   42b18:	004913c0 	call	4913c <__sprint_r>
   42b1c:	103c951e 	bne	r2,zero,41d74 <___vfprintf_internal_r+0x42c>
   42b20:	dd801f17 	ldw	r22,124(sp)
   42b24:	db001417 	ldw	r12,80(sp)
   42b28:	d9c01317 	ldw	r7,76(sp)
   42b2c:	da001217 	ldw	r8,72(sp)
   42b30:	d8c01017 	ldw	r3,64(sp)
   42b34:	db400f17 	ldw	r13,60(sp)
   42b38:	8825883a 	mov	r18,r17
   42b3c:	003c6d06 	br	41cf4 <___vfprintf_internal_r+0x3ac>
   42b40:	ddc01717 	ldw	r23,92(sp)
   42b44:	05c1a00e 	bge	zero,r23,431c8 <___vfprintf_internal_r+0x1880>
   42b48:	d8800917 	ldw	r2,36(sp)
   42b4c:	d9000817 	ldw	r4,32(sp)
   42b50:	102f883a 	mov	r23,r2
   42b54:	2080d016 	blt	r4,r2,42e98 <___vfprintf_internal_r+0x1550>
   42b58:	05c00a0e 	bge	zero,r23,42b84 <___vfprintf_internal_r+0x123c>
   42b5c:	d8801e17 	ldw	r2,120(sp)
   42b60:	b5ed883a 	add	r22,r22,r23
   42b64:	95400015 	stw	r21,0(r18)
   42b68:	10800044 	addi	r2,r2,1
   42b6c:	d8801e15 	stw	r2,120(sp)
   42b70:	95c00115 	stw	r23,4(r18)
   42b74:	dd801f15 	stw	r22,124(sp)
   42b78:	10800208 	cmpgei	r2,r2,8
   42b7c:	1003921e 	bne	r2,zero,439c8 <___vfprintf_internal_r+0x2080>
   42b80:	94800204 	addi	r18,r18,8
   42b84:	b800d016 	blt	r23,zero,42ec8 <___vfprintf_internal_r+0x1580>
   42b88:	d8800817 	ldw	r2,32(sp)
   42b8c:	15efc83a 	sub	r23,r2,r23
   42b90:	05c0fb16 	blt	zero,r23,42f80 <___vfprintf_internal_r+0x1638>
   42b94:	ddc01717 	ldw	r23,92(sp)
   42b98:	d9000917 	ldw	r4,36(sp)
   42b9c:	b900c10e 	bge	r23,r4,42ea4 <___vfprintf_internal_r+0x155c>
   42ba0:	d8800d17 	ldw	r2,52(sp)
   42ba4:	d9400c17 	ldw	r5,48(sp)
   42ba8:	90800015 	stw	r2,0(r18)
   42bac:	d8801e17 	ldw	r2,120(sp)
   42bb0:	2d89883a 	add	r4,r5,r22
   42bb4:	91400115 	stw	r5,4(r18)
   42bb8:	10800044 	addi	r2,r2,1
   42bbc:	d8801e15 	stw	r2,120(sp)
   42bc0:	d9001f15 	stw	r4,124(sp)
   42bc4:	10800208 	cmpgei	r2,r2,8
   42bc8:	1003651e 	bne	r2,zero,43960 <___vfprintf_internal_r+0x2018>
   42bcc:	94800204 	addi	r18,r18,8
   42bd0:	d8800917 	ldw	r2,36(sp)
   42bd4:	d9400817 	ldw	r5,32(sp)
   42bd8:	15efc83a 	sub	r23,r2,r23
   42bdc:	1179c83a 	sub	fp,r2,r5
   42be0:	bf00010e 	bge	r23,fp,42be8 <___vfprintf_internal_r+0x12a0>
   42be4:	b839883a 	mov	fp,r23
   42be8:	07000c0e 	bge	zero,fp,42c1c <___vfprintf_internal_r+0x12d4>
   42bec:	d8800817 	ldw	r2,32(sp)
   42bf0:	2709883a 	add	r4,r4,fp
   42bf4:	97000115 	stw	fp,4(r18)
   42bf8:	a893883a 	add	r9,r21,r2
   42bfc:	d8801e17 	ldw	r2,120(sp)
   42c00:	92400015 	stw	r9,0(r18)
   42c04:	d9001f15 	stw	r4,124(sp)
   42c08:	10800044 	addi	r2,r2,1
   42c0c:	d8801e15 	stw	r2,120(sp)
   42c10:	10800208 	cmpgei	r2,r2,8
   42c14:	10037b1e 	bne	r2,zero,43a04 <___vfprintf_internal_r+0x20bc>
   42c18:	94800204 	addi	r18,r18,8
   42c1c:	e005883a 	mov	r2,fp
   42c20:	e000010e 	bge	fp,zero,42c28 <___vfprintf_internal_r+0x12e0>
   42c24:	0005883a 	mov	r2,zero
   42c28:	b8afc83a 	sub	r23,r23,r2
   42c2c:	05fc410e 	bge	zero,r23,41d34 <___vfprintf_internal_r+0x3ec>
   42c30:	05800174 	movhi	r22,5
   42c34:	b9400450 	cmplti	r5,r23,17
   42c38:	d8801e17 	ldw	r2,120(sp)
   42c3c:	b5850504 	addi	r22,r22,5140
   42c40:	283f851e 	bne	r5,zero,42a58 <___vfprintf_internal_r+0x1110>
   42c44:	980b883a 	mov	r5,r19
   42c48:	d8c00815 	stw	r3,32(sp)
   42c4c:	8027883a 	mov	r19,r16
   42c50:	9007883a 	mov	r3,r18
   42c54:	b821883a 	mov	r16,r23
   42c58:	b025883a 	mov	r18,r22
   42c5c:	dd400517 	ldw	r21,20(sp)
   42c60:	a02d883a 	mov	r22,r20
   42c64:	07000404 	movi	fp,16
   42c68:	6029883a 	mov	r20,r12
   42c6c:	282f883a 	mov	r23,r5
   42c70:	00000406 	br	42c84 <___vfprintf_internal_r+0x133c>
   42c74:	18c00204 	addi	r3,r3,8
   42c78:	843ffc04 	addi	r16,r16,-16
   42c7c:	81400448 	cmpgei	r5,r16,17
   42c80:	28034426 	beq	r5,zero,43994 <___vfprintf_internal_r+0x204c>
   42c84:	10800044 	addi	r2,r2,1
   42c88:	21000404 	addi	r4,r4,16
   42c8c:	1c800015 	stw	r18,0(r3)
   42c90:	1f000115 	stw	fp,4(r3)
   42c94:	d9001f15 	stw	r4,124(sp)
   42c98:	d8801e15 	stw	r2,120(sp)
   42c9c:	11400208 	cmpgei	r5,r2,8
   42ca0:	283ff426 	beq	r5,zero,42c74 <___vfprintf_internal_r+0x132c>
   42ca4:	d9400417 	ldw	r5,16(sp)
   42ca8:	d9801d04 	addi	r6,sp,116
   42cac:	a809883a 	mov	r4,r21
   42cb0:	004913c0 	call	4913c <__sprint_r>
   42cb4:	103c2f1e 	bne	r2,zero,41d74 <___vfprintf_internal_r+0x42c>
   42cb8:	d9001f17 	ldw	r4,124(sp)
   42cbc:	d8801e17 	ldw	r2,120(sp)
   42cc0:	8807883a 	mov	r3,r17
   42cc4:	003fec06 	br	42c78 <___vfprintf_internal_r+0x1330>
   42cc8:	1880004c 	andi	r2,r3,1
   42ccc:	103edd1e 	bne	r2,zero,42844 <___vfprintf_internal_r+0xefc>
   42cd0:	da001e17 	ldw	r8,120(sp)
   42cd4:	00800044 	movi	r2,1
   42cd8:	b7000044 	addi	fp,r22,1
   42cdc:	42000044 	addi	r8,r8,1
   42ce0:	90800115 	stw	r2,4(r18)
   42ce4:	95400015 	stw	r21,0(r18)
   42ce8:	df001f15 	stw	fp,124(sp)
   42cec:	da001e15 	stw	r8,120(sp)
   42cf0:	40800210 	cmplti	r2,r8,8
   42cf4:	103f001e 	bne	r2,zero,428f8 <___vfprintf_internal_r+0xfb0>
   42cf8:	d9400417 	ldw	r5,16(sp)
   42cfc:	d9000517 	ldw	r4,20(sp)
   42d00:	d9801d04 	addi	r6,sp,116
   42d04:	db000f15 	stw	r12,60(sp)
   42d08:	d8c00815 	stw	r3,32(sp)
   42d0c:	004913c0 	call	4913c <__sprint_r>
   42d10:	103c181e 	bne	r2,zero,41d74 <___vfprintf_internal_r+0x42c>
   42d14:	df001f17 	ldw	fp,124(sp)
   42d18:	da001e17 	ldw	r8,120(sp)
   42d1c:	db000f17 	ldw	r12,60(sp)
   42d20:	d8c00817 	ldw	r3,32(sp)
   42d24:	882f883a 	mov	r23,r17
   42d28:	003ef306 	br	428f8 <___vfprintf_internal_r+0xfb0>
   42d2c:	000f883a 	mov	r7,zero
   42d30:	882b883a 	mov	r21,r17
   42d34:	003c8c06 	br	41f68 <___vfprintf_internal_r+0x620>
   42d38:	d8800917 	ldw	r2,36(sp)
   42d3c:	10800090 	cmplti	r2,r2,2
   42d40:	103eed1e 	bne	r2,zero,428f8 <___vfprintf_internal_r+0xfb0>
   42d44:	d8800917 	ldw	r2,36(sp)
   42d48:	05800174 	movhi	r22,5
   42d4c:	b5850504 	addi	r22,r22,5140
   42d50:	10800490 	cmplti	r2,r2,18
   42d54:	1002061e 	bne	r2,zero,43570 <___vfprintf_internal_r+0x1c28>
   42d58:	9809883a 	mov	r4,r19
   42d5c:	b805883a 	mov	r2,r23
   42d60:	1827883a 	mov	r19,r3
   42d64:	a02f883a 	mov	r23,r20
   42d68:	e007883a 	mov	r3,fp
   42d6c:	8029883a 	mov	r20,r16
   42d70:	05400404 	movi	r21,16
   42d74:	9021883a 	mov	r16,r18
   42d78:	2039883a 	mov	fp,r4
   42d7c:	b025883a 	mov	r18,r22
   42d80:	602d883a 	mov	r22,r12
   42d84:	00000406 	br	42d98 <___vfprintf_internal_r+0x1450>
   42d88:	10800204 	addi	r2,r2,8
   42d8c:	843ffc04 	addi	r16,r16,-16
   42d90:	81000448 	cmpgei	r4,r16,17
   42d94:	2001ec26 	beq	r4,zero,43548 <___vfprintf_internal_r+0x1c00>
   42d98:	42000044 	addi	r8,r8,1
   42d9c:	18c00404 	addi	r3,r3,16
   42da0:	14800015 	stw	r18,0(r2)
   42da4:	15400115 	stw	r21,4(r2)
   42da8:	d8c01f15 	stw	r3,124(sp)
   42dac:	da001e15 	stw	r8,120(sp)
   42db0:	41000208 	cmpgei	r4,r8,8
   42db4:	203ff426 	beq	r4,zero,42d88 <___vfprintf_internal_r+0x1440>
   42db8:	d9400417 	ldw	r5,16(sp)
   42dbc:	d9000517 	ldw	r4,20(sp)
   42dc0:	d9801d04 	addi	r6,sp,116
   42dc4:	004913c0 	call	4913c <__sprint_r>
   42dc8:	103bea1e 	bne	r2,zero,41d74 <___vfprintf_internal_r+0x42c>
   42dcc:	d8c01f17 	ldw	r3,124(sp)
   42dd0:	da001e17 	ldw	r8,120(sp)
   42dd4:	8805883a 	mov	r2,r17
   42dd8:	003fec06 	br	42d8c <___vfprintf_internal_r+0x1444>
   42ddc:	d9400417 	ldw	r5,16(sp)
   42de0:	d9000517 	ldw	r4,20(sp)
   42de4:	d9801d04 	addi	r6,sp,116
   42de8:	db001215 	stw	r12,72(sp)
   42dec:	d9c01015 	stw	r7,64(sp)
   42df0:	d8c00f15 	stw	r3,60(sp)
   42df4:	004913c0 	call	4913c <__sprint_r>
   42df8:	103bde1e 	bne	r2,zero,41d74 <___vfprintf_internal_r+0x42c>
   42dfc:	dd801f17 	ldw	r22,124(sp)
   42e00:	db001217 	ldw	r12,72(sp)
   42e04:	d9c01017 	ldw	r7,64(sp)
   42e08:	d8c00f17 	ldw	r3,60(sp)
   42e0c:	8825883a 	mov	r18,r17
   42e10:	003bbc06 	br	41d04 <___vfprintf_internal_r+0x3bc>
   42e14:	d9400417 	ldw	r5,16(sp)
   42e18:	d9000517 	ldw	r4,20(sp)
   42e1c:	d9801d04 	addi	r6,sp,116
   42e20:	db000f15 	stw	r12,60(sp)
   42e24:	d8c00815 	stw	r3,32(sp)
   42e28:	004913c0 	call	4913c <__sprint_r>
   42e2c:	103bd11e 	bne	r2,zero,41d74 <___vfprintf_internal_r+0x42c>
   42e30:	d9001f17 	ldw	r4,124(sp)
   42e34:	db000f17 	ldw	r12,60(sp)
   42e38:	d8c00817 	ldw	r3,32(sp)
   42e3c:	8825883a 	mov	r18,r17
   42e40:	003bbc06 	br	41d34 <___vfprintf_internal_r+0x3ec>
   42e44:	6b400414 	ori	r13,r13,16
   42e48:	003b0f06 	br	41a88 <___vfprintf_internal_r+0x140>
   42e4c:	a2c00007 	ldb	r11,0(r20)
   42e50:	d8800715 	stw	r2,28(sp)
   42e54:	003b0c06 	br	41a88 <___vfprintf_internal_r+0x140>
   42e58:	882b883a 	mov	r21,r17
   42e5c:	003c4206 	br	41f68 <___vfprintf_internal_r+0x620>
   42e60:	18800017 	ldw	r2,0(r3)
   42e64:	d8800a15 	stw	r2,40(sp)
   42e68:	18800117 	ldw	r2,4(r3)
   42e6c:	d8800b15 	stw	r2,44(sp)
   42e70:	003c9e06 	br	420ec <___vfprintf_internal_r+0x7a4>
   42e74:	6880040c 	andi	r2,r13,16
   42e78:	1000921e 	bne	r2,zero,430c4 <___vfprintf_internal_r+0x177c>
   42e7c:	6b40100c 	andi	r13,r13,64
   42e80:	68009026 	beq	r13,zero,430c4 <___vfprintf_internal_r+0x177c>
   42e84:	d8800717 	ldw	r2,28(sp)
   42e88:	d8c00617 	ldw	r3,24(sp)
   42e8c:	10800017 	ldw	r2,0(r2)
   42e90:	10c0000d 	sth	r3,0(r2)
   42e94:	003d7406 	br	42468 <___vfprintf_internal_r+0xb20>
   42e98:	202f883a 	mov	r23,r4
   42e9c:	05ff2f16 	blt	zero,r23,42b5c <___vfprintf_internal_r+0x1214>
   42ea0:	003f3806 	br	42b84 <___vfprintf_internal_r+0x123c>
   42ea4:	1880004c 	andi	r2,r3,1
   42ea8:	103f3d1e 	bne	r2,zero,42ba0 <___vfprintf_internal_r+0x1258>
   42eac:	d8800817 	ldw	r2,32(sp)
   42eb0:	25efc83a 	sub	r23,r4,r23
   42eb4:	20b9c83a 	sub	fp,r4,r2
   42eb8:	b009883a 	mov	r4,r22
   42ebc:	bf3f570e 	bge	r23,fp,42c1c <___vfprintf_internal_r+0x12d4>
   42ec0:	b839883a 	mov	fp,r23
   42ec4:	003f5506 	br	42c1c <___vfprintf_internal_r+0x12d4>
   42ec8:	002f883a 	mov	r23,zero
   42ecc:	003f2e06 	br	42b88 <___vfprintf_internal_r+0x1240>
   42ed0:	d9400417 	ldw	r5,16(sp)
   42ed4:	d9000517 	ldw	r4,20(sp)
   42ed8:	d9801d04 	addi	r6,sp,116
   42edc:	db000f15 	stw	r12,60(sp)
   42ee0:	d8c00815 	stw	r3,32(sp)
   42ee4:	004913c0 	call	4913c <__sprint_r>
   42ee8:	103ba21e 	bne	r2,zero,41d74 <___vfprintf_internal_r+0x42c>
   42eec:	d9001f17 	ldw	r4,124(sp)
   42ef0:	db000f17 	ldw	r12,60(sp)
   42ef4:	d8c00817 	ldw	r3,32(sp)
   42ef8:	8825883a 	mov	r18,r17
   42efc:	003d8a06 	br	42528 <___vfprintf_internal_r+0xbe0>
   42f00:	00800174 	movhi	r2,5
   42f04:	1084f804 	addi	r2,r2,5088
   42f08:	d8800e15 	stw	r2,56(sp)
   42f0c:	6880080c 	andi	r2,r13,32
   42f10:	10007326 	beq	r2,zero,430e0 <___vfprintf_internal_r+0x1798>
   42f14:	d8800717 	ldw	r2,28(sp)
   42f18:	15800017 	ldw	r22,0(r2)
   42f1c:	15c00117 	ldw	r23,4(r2)
   42f20:	10800204 	addi	r2,r2,8
   42f24:	d8800715 	stw	r2,28(sp)
   42f28:	6880004c 	andi	r2,r13,1
   42f2c:	10006a26 	beq	r2,zero,430d8 <___vfprintf_internal_r+0x1790>
   42f30:	b5c4b03a 	or	r2,r22,r23
   42f34:	10006826 	beq	r2,zero,430d8 <___vfprintf_internal_r+0x1790>
   42f38:	00800c04 	movi	r2,48
   42f3c:	d8801685 	stb	r2,90(sp)
   42f40:	df0016c5 	stb	fp,91(sp)
   42f44:	6b400094 	ori	r13,r13,2
   42f48:	00800084 	movi	r2,2
   42f4c:	003be306 	br	41edc <___vfprintf_internal_r+0x594>
   42f50:	408001f0 	cmpltui	r2,r8,7
   42f54:	400f883a 	mov	r7,r8
   42f58:	1001bf26 	beq	r2,zero,43658 <___vfprintf_internal_r+0x1d10>
   42f5c:	05400174 	movhi	r21,5
   42f60:	3819883a 	mov	r12,r7
   42f64:	dd800715 	stw	r22,28(sp)
   42f68:	ad450204 	addi	r21,r21,5128
   42f6c:	003b3b06 	br	41c5c <___vfprintf_internal_r+0x314>
   42f70:	00800174 	movhi	r2,5
   42f74:	1084fd04 	addi	r2,r2,5108
   42f78:	d8800e15 	stw	r2,56(sp)
   42f7c:	003fe306 	br	42f0c <___vfprintf_internal_r+0x15c4>
   42f80:	b009883a 	mov	r4,r22
   42f84:	b9400450 	cmplti	r5,r23,17
   42f88:	05800174 	movhi	r22,5
   42f8c:	d8801e17 	ldw	r2,120(sp)
   42f90:	b5850504 	addi	r22,r22,5140
   42f94:	2801901e 	bne	r5,zero,435d8 <___vfprintf_internal_r+0x1c90>
   42f98:	980b883a 	mov	r5,r19
   42f9c:	d8c00f15 	stw	r3,60(sp)
   42fa0:	8027883a 	mov	r19,r16
   42fa4:	9007883a 	mov	r3,r18
   42fa8:	b821883a 	mov	r16,r23
   42fac:	b025883a 	mov	r18,r22
   42fb0:	07000404 	movi	fp,16
   42fb4:	a02d883a 	mov	r22,r20
   42fb8:	282f883a 	mov	r23,r5
   42fbc:	6029883a 	mov	r20,r12
   42fc0:	00000406 	br	42fd4 <___vfprintf_internal_r+0x168c>
   42fc4:	18c00204 	addi	r3,r3,8
   42fc8:	843ffc04 	addi	r16,r16,-16
   42fcc:	81400448 	cmpgei	r5,r16,17
   42fd0:	28017826 	beq	r5,zero,435b4 <___vfprintf_internal_r+0x1c6c>
   42fd4:	10800044 	addi	r2,r2,1
   42fd8:	21000404 	addi	r4,r4,16
   42fdc:	1c800015 	stw	r18,0(r3)
   42fe0:	1f000115 	stw	fp,4(r3)
   42fe4:	d9001f15 	stw	r4,124(sp)
   42fe8:	d8801e15 	stw	r2,120(sp)
   42fec:	11400208 	cmpgei	r5,r2,8
   42ff0:	283ff426 	beq	r5,zero,42fc4 <___vfprintf_internal_r+0x167c>
   42ff4:	d9400417 	ldw	r5,16(sp)
   42ff8:	d9000517 	ldw	r4,20(sp)
   42ffc:	d9801d04 	addi	r6,sp,116
   43000:	004913c0 	call	4913c <__sprint_r>
   43004:	103b5b1e 	bne	r2,zero,41d74 <___vfprintf_internal_r+0x42c>
   43008:	d9001f17 	ldw	r4,124(sp)
   4300c:	d8801e17 	ldw	r2,120(sp)
   43010:	8807883a 	mov	r3,r17
   43014:	003fec06 	br	42fc8 <___vfprintf_internal_r+0x1680>
   43018:	b007883a 	mov	r3,r22
   4301c:	9805883a 	mov	r2,r19
   43020:	dc000f15 	stw	r16,60(sp)
   43024:	a02d883a 	mov	r22,r20
   43028:	b827883a 	mov	r19,r23
   4302c:	9029883a 	mov	r20,r18
   43030:	db400815 	stw	r13,32(sp)
   43034:	8821883a 	mov	r16,r17
   43038:	da001015 	stw	r8,64(sp)
   4303c:	202b883a 	mov	r21,r4
   43040:	102f883a 	mov	r23,r2
   43044:	1825883a 	mov	r18,r3
   43048:	9009883a 	mov	r4,r18
   4304c:	980b883a 	mov	r5,r19
   43050:	01800284 	movi	r6,10
   43054:	000f883a 	mov	r7,zero
   43058:	004bb240 	call	4bb24 <__umoddi3>
   4305c:	10800c04 	addi	r2,r2,48
   43060:	9009883a 	mov	r4,r18
   43064:	980b883a 	mov	r5,r19
   43068:	01800284 	movi	r6,10
   4306c:	000f883a 	mov	r7,zero
   43070:	80bfffc5 	stb	r2,-1(r16)
   43074:	004b5d40 	call	4b5d4 <__udivdi3>
   43078:	980d883a 	mov	r6,r19
   4307c:	900f883a 	mov	r7,r18
   43080:	843fffc4 	addi	r16,r16,-1
   43084:	1025883a 	mov	r18,r2
   43088:	1827883a 	mov	r19,r3
   4308c:	303fee1e 	bne	r6,zero,43048 <___vfprintf_internal_r+0x1700>
   43090:	39c002a8 	cmpgeui	r7,r7,10
   43094:	383fec1e 	bne	r7,zero,43048 <___vfprintf_internal_r+0x1700>
   43098:	db400817 	ldw	r13,32(sp)
   4309c:	a809883a 	mov	r4,r21
   430a0:	802b883a 	mov	r21,r16
   430a4:	a025883a 	mov	r18,r20
   430a8:	da001017 	ldw	r8,64(sp)
   430ac:	dc000f17 	ldw	r16,60(sp)
   430b0:	b029883a 	mov	r20,r22
   430b4:	b827883a 	mov	r19,r23
   430b8:	8d4fc83a 	sub	r7,r17,r21
   430bc:	6807883a 	mov	r3,r13
   430c0:	003ba906 	br	41f68 <___vfprintf_internal_r+0x620>
   430c4:	d8800717 	ldw	r2,28(sp)
   430c8:	d8c00617 	ldw	r3,24(sp)
   430cc:	10800017 	ldw	r2,0(r2)
   430d0:	10c00015 	stw	r3,0(r2)
   430d4:	003ce406 	br	42468 <___vfprintf_internal_r+0xb20>
   430d8:	00800084 	movi	r2,2
   430dc:	003b7f06 	br	41edc <___vfprintf_internal_r+0x594>
   430e0:	d8c00717 	ldw	r3,28(sp)
   430e4:	6880040c 	andi	r2,r13,16
   430e8:	1d800017 	ldw	r22,0(r3)
   430ec:	18c00104 	addi	r3,r3,4
   430f0:	d8c00715 	stw	r3,28(sp)
   430f4:	1000051e 	bne	r2,zero,4310c <___vfprintf_internal_r+0x17c4>
   430f8:	6880100c 	andi	r2,r13,64
   430fc:	10000326 	beq	r2,zero,4310c <___vfprintf_internal_r+0x17c4>
   43100:	b5bfffcc 	andi	r22,r22,65535
   43104:	002f883a 	mov	r23,zero
   43108:	003f8706 	br	42f28 <___vfprintf_internal_r+0x15e0>
   4310c:	002f883a 	mov	r23,zero
   43110:	003f8506 	br	42f28 <___vfprintf_internal_r+0x15e0>
   43114:	d9400417 	ldw	r5,16(sp)
   43118:	d9000517 	ldw	r4,20(sp)
   4311c:	d9801d04 	addi	r6,sp,116
   43120:	db000f15 	stw	r12,60(sp)
   43124:	d8c00815 	stw	r3,32(sp)
   43128:	004913c0 	call	4913c <__sprint_r>
   4312c:	103b111e 	bne	r2,zero,41d74 <___vfprintf_internal_r+0x42c>
   43130:	dd801f17 	ldw	r22,124(sp)
   43134:	da001e17 	ldw	r8,120(sp)
   43138:	db000f17 	ldw	r12,60(sp)
   4313c:	d8c00817 	ldw	r3,32(sp)
   43140:	882f883a 	mov	r23,r17
   43144:	003dc906 	br	4286c <___vfprintf_internal_r+0xf24>
   43148:	d9400417 	ldw	r5,16(sp)
   4314c:	d9000517 	ldw	r4,20(sp)
   43150:	d9801d04 	addi	r6,sp,116
   43154:	db000f15 	stw	r12,60(sp)
   43158:	d8c00815 	stw	r3,32(sp)
   4315c:	004913c0 	call	4913c <__sprint_r>
   43160:	103b041e 	bne	r2,zero,41d74 <___vfprintf_internal_r+0x42c>
   43164:	df001f17 	ldw	fp,124(sp)
   43168:	da001e17 	ldw	r8,120(sp)
   4316c:	db000f17 	ldw	r12,60(sp)
   43170:	d8c00817 	ldw	r3,32(sp)
   43174:	882f883a 	mov	r23,r17
   43178:	003dc706 	br	42898 <___vfprintf_internal_r+0xf50>
   4317c:	d9400417 	ldw	r5,16(sp)
   43180:	d9000517 	ldw	r4,20(sp)
   43184:	d9801d04 	addi	r6,sp,116
   43188:	db001515 	stw	r12,84(sp)
   4318c:	d9c01415 	stw	r7,80(sp)
   43190:	da001315 	stw	r8,76(sp)
   43194:	d8c01215 	stw	r3,72(sp)
   43198:	db401015 	stw	r13,64(sp)
   4319c:	db800f15 	stw	r14,60(sp)
   431a0:	004913c0 	call	4913c <__sprint_r>
   431a4:	103af31e 	bne	r2,zero,41d74 <___vfprintf_internal_r+0x42c>
   431a8:	db001517 	ldw	r12,84(sp)
   431ac:	d9c01417 	ldw	r7,80(sp)
   431b0:	da001317 	ldw	r8,76(sp)
   431b4:	d8c01217 	ldw	r3,72(sp)
   431b8:	db401017 	ldw	r13,64(sp)
   431bc:	db800f17 	ldw	r14,60(sp)
   431c0:	8825883a 	mov	r18,r17
   431c4:	003aaf06 	br	41c84 <___vfprintf_internal_r+0x33c>
   431c8:	d8801e17 	ldw	r2,120(sp)
   431cc:	01400174 	movhi	r5,5
   431d0:	29450404 	addi	r5,r5,5136
   431d4:	10800044 	addi	r2,r2,1
   431d8:	b1000044 	addi	r4,r22,1
   431dc:	91400015 	stw	r5,0(r18)
   431e0:	01400044 	movi	r5,1
   431e4:	d8801e15 	stw	r2,120(sp)
   431e8:	91400115 	stw	r5,4(r18)
   431ec:	d9001f15 	stw	r4,124(sp)
   431f0:	10800208 	cmpgei	r2,r2,8
   431f4:	1001071e 	bne	r2,zero,43614 <___vfprintf_internal_r+0x1ccc>
   431f8:	94800204 	addi	r18,r18,8
   431fc:	b800a31e 	bne	r23,zero,4348c <___vfprintf_internal_r+0x1b44>
   43200:	d9400917 	ldw	r5,36(sp)
   43204:	1880004c 	andi	r2,r3,1
   43208:	1144b03a 	or	r2,r2,r5
   4320c:	103ac926 	beq	r2,zero,41d34 <___vfprintf_internal_r+0x3ec>
   43210:	d8800d17 	ldw	r2,52(sp)
   43214:	d9400c17 	ldw	r5,48(sp)
   43218:	90800015 	stw	r2,0(r18)
   4321c:	d8801e17 	ldw	r2,120(sp)
   43220:	2909883a 	add	r4,r5,r4
   43224:	91400115 	stw	r5,4(r18)
   43228:	10800044 	addi	r2,r2,1
   4322c:	d9001f15 	stw	r4,124(sp)
   43230:	d8801e15 	stw	r2,120(sp)
   43234:	11400208 	cmpgei	r5,r2,8
   43238:	28010e1e 	bne	r5,zero,43674 <___vfprintf_internal_r+0x1d2c>
   4323c:	94800204 	addi	r18,r18,8
   43240:	d9400917 	ldw	r5,36(sp)
   43244:	10800044 	addi	r2,r2,1
   43248:	d8801e15 	stw	r2,120(sp)
   4324c:	2909883a 	add	r4,r5,r4
   43250:	95400015 	stw	r21,0(r18)
   43254:	91400115 	stw	r5,4(r18)
   43258:	d9001f15 	stw	r4,124(sp)
   4325c:	10800208 	cmpgei	r2,r2,8
   43260:	103ab326 	beq	r2,zero,41d30 <___vfprintf_internal_r+0x3e8>
   43264:	003e0406 	br	42a78 <___vfprintf_internal_r+0x1130>
   43268:	d9000a17 	ldw	r4,40(sp)
   4326c:	d9400b17 	ldw	r5,44(sp)
   43270:	da000815 	stw	r8,32(sp)
   43274:	200d883a 	mov	r6,r4
   43278:	280f883a 	mov	r7,r5
   4327c:	db400715 	stw	r13,28(sp)
   43280:	004e6300 	call	4e630 <__unorddf2>
   43284:	db400717 	ldw	r13,28(sp)
   43288:	da000817 	ldw	r8,32(sp)
   4328c:	10024c1e 	bne	r2,zero,43bc0 <___vfprintf_internal_r+0x2278>
   43290:	057ff7c4 	movi	r21,-33
   43294:	40bfffe0 	cmpeqi	r2,r8,-1
   43298:	e56c703a 	and	r22,fp,r21
   4329c:	1001d71e 	bne	r2,zero,439fc <___vfprintf_internal_r+0x20b4>
   432a0:	b08011d8 	cmpnei	r2,r22,71
   432a4:	1001c526 	beq	r2,zero,439bc <___vfprintf_internal_r+0x2074>
   432a8:	d8800b17 	ldw	r2,44(sp)
   432ac:	68c04014 	ori	r3,r13,256
   432b0:	1000e516 	blt	r2,zero,43648 <___vfprintf_internal_r+0x1d00>
   432b4:	ddc00b17 	ldw	r23,44(sp)
   432b8:	d8000705 	stb	zero,28(sp)
   432bc:	e08019a0 	cmpeqi	r2,fp,102
   432c0:	d8801015 	stw	r2,64(sp)
   432c4:	10017c1e 	bne	r2,zero,438b8 <___vfprintf_internal_r+0x1f70>
   432c8:	b0801158 	cmpnei	r2,r22,69
   432cc:	1000f826 	beq	r2,zero,436b0 <___vfprintf_internal_r+0x1d68>
   432d0:	d8801b04 	addi	r2,sp,108
   432d4:	d9000517 	ldw	r4,20(sp)
   432d8:	d8800315 	stw	r2,12(sp)
   432dc:	d9400a17 	ldw	r5,40(sp)
   432e0:	d8801804 	addi	r2,sp,96
   432e4:	d8800215 	stw	r2,8(sp)
   432e8:	d8801704 	addi	r2,sp,92
   432ec:	da000015 	stw	r8,0(sp)
   432f0:	d8800115 	stw	r2,4(sp)
   432f4:	01c00084 	movi	r7,2
   432f8:	b80d883a 	mov	r6,r23
   432fc:	d8c01215 	stw	r3,72(sp)
   43300:	db400915 	stw	r13,36(sp)
   43304:	da000815 	stw	r8,32(sp)
   43308:	00441180 	call	44118 <_dtoa_r>
   4330c:	e10019e0 	cmpeqi	r4,fp,103
   43310:	da000817 	ldw	r8,32(sp)
   43314:	db400917 	ldw	r13,36(sp)
   43318:	d8c01217 	ldw	r3,72(sp)
   4331c:	102b883a 	mov	r21,r2
   43320:	20010b26 	beq	r4,zero,43750 <___vfprintf_internal_r+0x1e08>
   43324:	6880004c 	andi	r2,r13,1
   43328:	10010b26 	beq	r2,zero,43758 <___vfprintf_internal_r+0x1e10>
   4332c:	aa19883a 	add	r12,r21,r8
   43330:	d9000a17 	ldw	r4,40(sp)
   43334:	000d883a 	mov	r6,zero
   43338:	000f883a 	mov	r7,zero
   4333c:	b80b883a 	mov	r5,r23
   43340:	db001315 	stw	r12,76(sp)
   43344:	da001215 	stw	r8,72(sp)
   43348:	d8c00915 	stw	r3,36(sp)
   4334c:	db400815 	stw	r13,32(sp)
   43350:	004d3340 	call	4d334 <__eqdf2>
   43354:	db400817 	ldw	r13,32(sp)
   43358:	d8c00917 	ldw	r3,36(sp)
   4335c:	da001217 	ldw	r8,72(sp)
   43360:	db001317 	ldw	r12,76(sp)
   43364:	10023326 	beq	r2,zero,43c34 <___vfprintf_internal_r+0x22ec>
   43368:	d8801b17 	ldw	r2,108(sp)
   4336c:	1300062e 	bgeu	r2,r12,43388 <___vfprintf_internal_r+0x1a40>
   43370:	01400c04 	movi	r5,48
   43374:	11000044 	addi	r4,r2,1
   43378:	d9001b15 	stw	r4,108(sp)
   4337c:	11400005 	stb	r5,0(r2)
   43380:	d8801b17 	ldw	r2,108(sp)
   43384:	133ffb36 	bltu	r2,r12,43374 <___vfprintf_internal_r+0x1a2c>
   43388:	d9c01717 	ldw	r7,92(sp)
   4338c:	1545c83a 	sub	r2,r2,r21
   43390:	b10011d8 	cmpnei	r4,r22,71
   43394:	d8800915 	stw	r2,36(sp)
   43398:	d9c00815 	stw	r7,32(sp)
   4339c:	2000f226 	beq	r4,zero,43768 <___vfprintf_internal_r+0x1e20>
   433a0:	d8801017 	ldw	r2,64(sp)
   433a4:	10021d26 	beq	r2,zero,43c1c <___vfprintf_internal_r+0x22d4>
   433a8:	d9000817 	ldw	r4,32(sp)
   433ac:	6880004c 	andi	r2,r13,1
   433b0:	1204b03a 	or	r2,r2,r8
   433b4:	0102430e 	bge	zero,r4,43cc4 <___vfprintf_internal_r+0x237c>
   433b8:	1002221e 	bne	r2,zero,43c44 <___vfprintf_internal_r+0x22fc>
   433bc:	d9c00817 	ldw	r7,32(sp)
   433c0:	3819883a 	mov	r12,r7
   433c4:	07001984 	movi	fp,102
   433c8:	ddc00707 	ldb	r23,28(sp)
   433cc:	b8013526 	beq	r23,zero,438a4 <___vfprintf_internal_r+0x1f5c>
   433d0:	00800b44 	movi	r2,45
   433d4:	d8801645 	stb	r2,89(sp)
   433d8:	d8800f17 	ldw	r2,60(sp)
   433dc:	0011883a 	mov	r8,zero
   433e0:	d8800715 	stw	r2,28(sp)
   433e4:	003ae806 	br	41f88 <___vfprintf_internal_r+0x640>
   433e8:	d9400417 	ldw	r5,16(sp)
   433ec:	d9000517 	ldw	r4,20(sp)
   433f0:	d9801d04 	addi	r6,sp,116
   433f4:	db000f15 	stw	r12,60(sp)
   433f8:	d8c00815 	stw	r3,32(sp)
   433fc:	004913c0 	call	4913c <__sprint_r>
   43400:	103a5c1e 	bne	r2,zero,41d74 <___vfprintf_internal_r+0x42c>
   43404:	dd801f17 	ldw	r22,124(sp)
   43408:	db000f17 	ldw	r12,60(sp)
   4340c:	d8c00817 	ldw	r3,32(sp)
   43410:	8825883a 	mov	r18,r17
   43414:	003c3106 	br	424dc <___vfprintf_internal_r+0xb94>
   43418:	d9400417 	ldw	r5,16(sp)
   4341c:	d9000517 	ldw	r4,20(sp)
   43420:	d9801d04 	addi	r6,sp,116
   43424:	db000f15 	stw	r12,60(sp)
   43428:	d8c00815 	stw	r3,32(sp)
   4342c:	004913c0 	call	4913c <__sprint_r>
   43430:	103a501e 	bne	r2,zero,41d74 <___vfprintf_internal_r+0x42c>
   43434:	df001f17 	ldw	fp,124(sp)
   43438:	da001e17 	ldw	r8,120(sp)
   4343c:	d8c00817 	ldw	r3,32(sp)
   43440:	db000f17 	ldw	r12,60(sp)
   43444:	882f883a 	mov	r23,r17
   43448:	003d2b06 	br	428f8 <___vfprintf_internal_r+0xfb0>
   4344c:	d9400417 	ldw	r5,16(sp)
   43450:	d9000517 	ldw	r4,20(sp)
   43454:	d9801d04 	addi	r6,sp,116
   43458:	db001315 	stw	r12,76(sp)
   4345c:	d9c01215 	stw	r7,72(sp)
   43460:	da001015 	stw	r8,64(sp)
   43464:	d8c00f15 	stw	r3,60(sp)
   43468:	004913c0 	call	4913c <__sprint_r>
   4346c:	103a411e 	bne	r2,zero,41d74 <___vfprintf_internal_r+0x42c>
   43470:	dd801f17 	ldw	r22,124(sp)
   43474:	db001317 	ldw	r12,76(sp)
   43478:	d9c01217 	ldw	r7,72(sp)
   4347c:	da001017 	ldw	r8,64(sp)
   43480:	d8c00f17 	ldw	r3,60(sp)
   43484:	8825883a 	mov	r18,r17
   43488:	003a1c06 	br	41cfc <___vfprintf_internal_r+0x3b4>
   4348c:	d8800d17 	ldw	r2,52(sp)
   43490:	d9400c17 	ldw	r5,48(sp)
   43494:	90800015 	stw	r2,0(r18)
   43498:	d8801e17 	ldw	r2,120(sp)
   4349c:	2909883a 	add	r4,r5,r4
   434a0:	91400115 	stw	r5,4(r18)
   434a4:	10800044 	addi	r2,r2,1
   434a8:	d9001f15 	stw	r4,124(sp)
   434ac:	d8801e15 	stw	r2,120(sp)
   434b0:	11400208 	cmpgei	r5,r2,8
   434b4:	28006f1e 	bne	r5,zero,43674 <___vfprintf_internal_r+0x1d2c>
   434b8:	94800204 	addi	r18,r18,8
   434bc:	b83f600e 	bge	r23,zero,43240 <___vfprintf_internal_r+0x18f8>
   434c0:	05800174 	movhi	r22,5
   434c4:	b97ffc08 	cmpgei	r5,r23,-16
   434c8:	b5850504 	addi	r22,r22,5140
   434cc:	05efc83a 	sub	r23,zero,r23
   434d0:	2801941e 	bne	r5,zero,43b24 <___vfprintf_internal_r+0x21dc>
   434d4:	d8c00815 	stw	r3,32(sp)
   434d8:	07000404 	movi	fp,16
   434dc:	9007883a 	mov	r3,r18
   434e0:	8025883a 	mov	r18,r16
   434e4:	b021883a 	mov	r16,r22
   434e8:	982d883a 	mov	r22,r19
   434ec:	6027883a 	mov	r19,r12
   434f0:	00000406 	br	43504 <___vfprintf_internal_r+0x1bbc>
   434f4:	18c00204 	addi	r3,r3,8
   434f8:	bdfffc04 	addi	r23,r23,-16
   434fc:	b9400448 	cmpgei	r5,r23,17
   43500:	28018226 	beq	r5,zero,43b0c <___vfprintf_internal_r+0x21c4>
   43504:	10800044 	addi	r2,r2,1
   43508:	21000404 	addi	r4,r4,16
   4350c:	1c000015 	stw	r16,0(r3)
   43510:	1f000115 	stw	fp,4(r3)
   43514:	d9001f15 	stw	r4,124(sp)
   43518:	d8801e15 	stw	r2,120(sp)
   4351c:	11400208 	cmpgei	r5,r2,8
   43520:	283ff426 	beq	r5,zero,434f4 <___vfprintf_internal_r+0x1bac>
   43524:	d9400417 	ldw	r5,16(sp)
   43528:	d9000517 	ldw	r4,20(sp)
   4352c:	d9801d04 	addi	r6,sp,116
   43530:	004913c0 	call	4913c <__sprint_r>
   43534:	103a0f1e 	bne	r2,zero,41d74 <___vfprintf_internal_r+0x42c>
   43538:	d9001f17 	ldw	r4,124(sp)
   4353c:	d8801e17 	ldw	r2,120(sp)
   43540:	8807883a 	mov	r3,r17
   43544:	003fec06 	br	434f8 <___vfprintf_internal_r+0x1bb0>
   43548:	b019883a 	mov	r12,r22
   4354c:	902d883a 	mov	r22,r18
   43550:	8025883a 	mov	r18,r16
   43554:	a021883a 	mov	r16,r20
   43558:	b829883a 	mov	r20,r23
   4355c:	102f883a 	mov	r23,r2
   43560:	e005883a 	mov	r2,fp
   43564:	1839883a 	mov	fp,r3
   43568:	9807883a 	mov	r3,r19
   4356c:	1027883a 	mov	r19,r2
   43570:	42000044 	addi	r8,r8,1
   43574:	e4b9883a 	add	fp,fp,r18
   43578:	bd800015 	stw	r22,0(r23)
   4357c:	003cd806 	br	428e0 <___vfprintf_internal_r+0xf98>
   43580:	a809883a 	mov	r4,r21
   43584:	00418b00 	call	418b0 <strlen>
   43588:	db400817 	ldw	r13,32(sp)
   4358c:	100f883a 	mov	r7,r2
   43590:	1019883a 	mov	r12,r2
   43594:	dd800715 	stw	r22,28(sp)
   43598:	0039b006 	br	41c5c <___vfprintf_internal_r+0x314>
   4359c:	05400174 	movhi	r21,5
   435a0:	ad44f404 	addi	r21,r21,5072
   435a4:	003af606 	br	42180 <___vfprintf_internal_r+0x838>
   435a8:	05800174 	movhi	r22,5
   435ac:	b5850504 	addi	r22,r22,5140
   435b0:	003c7806 	br	42794 <___vfprintf_internal_r+0xe4c>
   435b4:	a019883a 	mov	r12,r20
   435b8:	b029883a 	mov	r20,r22
   435bc:	902d883a 	mov	r22,r18
   435c0:	1825883a 	mov	r18,r3
   435c4:	d8c00f17 	ldw	r3,60(sp)
   435c8:	b80b883a 	mov	r5,r23
   435cc:	802f883a 	mov	r23,r16
   435d0:	9821883a 	mov	r16,r19
   435d4:	2827883a 	mov	r19,r5
   435d8:	10800044 	addi	r2,r2,1
   435dc:	b909883a 	add	r4,r23,r4
   435e0:	d8801e15 	stw	r2,120(sp)
   435e4:	95800015 	stw	r22,0(r18)
   435e8:	95c00115 	stw	r23,4(r18)
   435ec:	d9001f15 	stw	r4,124(sp)
   435f0:	10800208 	cmpgei	r2,r2,8
   435f4:	10004a1e 	bne	r2,zero,43720 <___vfprintf_internal_r+0x1dd8>
   435f8:	94800204 	addi	r18,r18,8
   435fc:	202d883a 	mov	r22,r4
   43600:	003d6406 	br	42b94 <___vfprintf_internal_r+0x124c>
   43604:	00800b44 	movi	r2,45
   43608:	d8801645 	stb	r2,89(sp)
   4360c:	01000b44 	movi	r4,45
   43610:	003ad706 	br	42170 <___vfprintf_internal_r+0x828>
   43614:	d9400417 	ldw	r5,16(sp)
   43618:	d9000517 	ldw	r4,20(sp)
   4361c:	d9801d04 	addi	r6,sp,116
   43620:	db000f15 	stw	r12,60(sp)
   43624:	d8c00815 	stw	r3,32(sp)
   43628:	004913c0 	call	4913c <__sprint_r>
   4362c:	1039d11e 	bne	r2,zero,41d74 <___vfprintf_internal_r+0x42c>
   43630:	ddc01717 	ldw	r23,92(sp)
   43634:	d9001f17 	ldw	r4,124(sp)
   43638:	db000f17 	ldw	r12,60(sp)
   4363c:	d8c00817 	ldw	r3,32(sp)
   43640:	8825883a 	mov	r18,r17
   43644:	003eed06 	br	431fc <___vfprintf_internal_r+0x18b4>
   43648:	15e0003c 	xorhi	r23,r2,32768
   4364c:	00800b44 	movi	r2,45
   43650:	d8800705 	stb	r2,28(sp)
   43654:	003f1906 	br	432bc <___vfprintf_internal_r+0x1974>
   43658:	01c00184 	movi	r7,6
   4365c:	003e3f06 	br	42f5c <___vfprintf_internal_r+0x1614>
   43660:	d9400417 	ldw	r5,16(sp)
   43664:	d9000517 	ldw	r4,20(sp)
   43668:	d9801d04 	addi	r6,sp,116
   4366c:	004913c0 	call	4913c <__sprint_r>
   43670:	0039c006 	br	41d74 <___vfprintf_internal_r+0x42c>
   43674:	d9400417 	ldw	r5,16(sp)
   43678:	d9000517 	ldw	r4,20(sp)
   4367c:	d9801d04 	addi	r6,sp,116
   43680:	db000f15 	stw	r12,60(sp)
   43684:	d8c00815 	stw	r3,32(sp)
   43688:	004913c0 	call	4913c <__sprint_r>
   4368c:	1039b91e 	bne	r2,zero,41d74 <___vfprintf_internal_r+0x42c>
   43690:	ddc01717 	ldw	r23,92(sp)
   43694:	d9001f17 	ldw	r4,124(sp)
   43698:	d8801e17 	ldw	r2,120(sp)
   4369c:	db000f17 	ldw	r12,60(sp)
   436a0:	d8c00817 	ldw	r3,32(sp)
   436a4:	8825883a 	mov	r18,r17
   436a8:	b83ee50e 	bge	r23,zero,43240 <___vfprintf_internal_r+0x18f8>
   436ac:	003f8406 	br	434c0 <___vfprintf_internal_r+0x1b78>
   436b0:	d8801b04 	addi	r2,sp,108
   436b4:	d8800315 	stw	r2,12(sp)
   436b8:	d9400a17 	ldw	r5,40(sp)
   436bc:	d8801804 	addi	r2,sp,96
   436c0:	d9000517 	ldw	r4,20(sp)
   436c4:	d8c01315 	stw	r3,76(sp)
   436c8:	d8800215 	stw	r2,8(sp)
   436cc:	40c00044 	addi	r3,r8,1
   436d0:	d8801704 	addi	r2,sp,92
   436d4:	d8c00015 	stw	r3,0(sp)
   436d8:	d8800115 	stw	r2,4(sp)
   436dc:	01c00084 	movi	r7,2
   436e0:	b80d883a 	mov	r6,r23
   436e4:	db401215 	stw	r13,72(sp)
   436e8:	da000815 	stw	r8,32(sp)
   436ec:	d8c00915 	stw	r3,36(sp)
   436f0:	00441180 	call	44118 <_dtoa_r>
   436f4:	da000817 	ldw	r8,32(sp)
   436f8:	db401217 	ldw	r13,72(sp)
   436fc:	d8c01317 	ldw	r3,76(sp)
   43700:	102b883a 	mov	r21,r2
   43704:	e08011d8 	cmpnei	r2,fp,71
   43708:	1001351e 	bne	r2,zero,43be0 <___vfprintf_internal_r+0x2298>
   4370c:	6880004c 	andi	r2,r13,1
   43710:	10001126 	beq	r2,zero,43758 <___vfprintf_internal_r+0x1e10>
   43714:	d8800917 	ldw	r2,36(sp)
   43718:	a899883a 	add	r12,r21,r2
   4371c:	003f0406 	br	43330 <___vfprintf_internal_r+0x19e8>
   43720:	d9400417 	ldw	r5,16(sp)
   43724:	d9000517 	ldw	r4,20(sp)
   43728:	d9801d04 	addi	r6,sp,116
   4372c:	db001015 	stw	r12,64(sp)
   43730:	d8c00f15 	stw	r3,60(sp)
   43734:	004913c0 	call	4913c <__sprint_r>
   43738:	10398e1e 	bne	r2,zero,41d74 <___vfprintf_internal_r+0x42c>
   4373c:	dd801f17 	ldw	r22,124(sp)
   43740:	db001017 	ldw	r12,64(sp)
   43744:	d8c00f17 	ldw	r3,60(sp)
   43748:	8825883a 	mov	r18,r17
   4374c:	003d1106 	br	42b94 <___vfprintf_internal_r+0x124c>
   43750:	da000915 	stw	r8,36(sp)
   43754:	003feb06 	br	43704 <___vfprintf_internal_r+0x1dbc>
   43758:	d8801b17 	ldw	r2,108(sp)
   4375c:	d9c01717 	ldw	r7,92(sp)
   43760:	1545c83a 	sub	r2,r2,r21
   43764:	d8800915 	stw	r2,36(sp)
   43768:	38bfff48 	cmpgei	r2,r7,-3
   4376c:	d9c00815 	stw	r7,32(sp)
   43770:	1000b31e 	bne	r2,zero,43a40 <___vfprintf_internal_r+0x20f8>
   43774:	e73fff84 	addi	fp,fp,-2
   43778:	397fffc4 	addi	r5,r7,-1
   4377c:	e005883a 	mov	r2,fp
   43780:	01000044 	movi	r4,1
   43784:	21efc83a 	sub	r23,r4,r7
   43788:	01000b44 	movi	r4,45
   4378c:	21003fcc 	andi	r4,r4,255
   43790:	2008923a 	slli	r4,r4,8
   43794:	10803fcc 	andi	r2,r2,255
   43798:	d9401715 	stw	r5,92(sp)
   4379c:	1104b03a 	or	r2,r2,r4
   437a0:	d880190d 	sth	r2,100(sp)
   437a4:	b8800290 	cmplti	r2,r23,10
   437a8:	1000c71e 	bne	r2,zero,43ac8 <___vfprintf_internal_r+0x2180>
   437ac:	dd801cc4 	addi	r22,sp,115
   437b0:	9805883a 	mov	r2,r19
   437b4:	db400815 	stw	r13,32(sp)
   437b8:	b027883a 	mov	r19,r22
   437bc:	d8c01015 	stw	r3,64(sp)
   437c0:	a02d883a 	mov	r22,r20
   437c4:	dc001115 	stw	r16,68(sp)
   437c8:	9029883a 	mov	r20,r18
   437cc:	b825883a 	mov	r18,r23
   437d0:	102f883a 	mov	r23,r2
   437d4:	9009883a 	mov	r4,r18
   437d8:	01400284 	movi	r5,10
   437dc:	004c0b40 	call	4c0b4 <__modsi3>
   437e0:	10800c04 	addi	r2,r2,48
   437e4:	9009883a 	mov	r4,r18
   437e8:	01400284 	movi	r5,10
   437ec:	98bfffc5 	stb	r2,-1(r19)
   437f0:	004c0340 	call	4c034 <__divsi3>
   437f4:	91401908 	cmpgei	r5,r18,100
   437f8:	9821883a 	mov	r16,r19
   437fc:	1025883a 	mov	r18,r2
   43800:	9cffffc4 	addi	r19,r19,-1
   43804:	283ff31e 	bne	r5,zero,437d4 <___vfprintf_internal_r+0x1e8c>
   43808:	b805883a 	mov	r2,r23
   4380c:	902f883a 	mov	r23,r18
   43810:	8009883a 	mov	r4,r16
   43814:	a025883a 	mov	r18,r20
   43818:	b029883a 	mov	r20,r22
   4381c:	982d883a 	mov	r22,r19
   43820:	1027883a 	mov	r19,r2
   43824:	b8800c04 	addi	r2,r23,48
   43828:	b0bfffc5 	stb	r2,-1(r22)
   4382c:	217fff84 	addi	r5,r4,-2
   43830:	d8801cc4 	addi	r2,sp,115
   43834:	db400817 	ldw	r13,32(sp)
   43838:	d8c01017 	ldw	r3,64(sp)
   4383c:	dc001117 	ldw	r16,68(sp)
   43840:	28810e2e 	bgeu	r5,r2,43c7c <___vfprintf_internal_r+0x2334>
   43844:	d8801d44 	addi	r2,sp,117
   43848:	112dc83a 	sub	r22,r2,r4
   4384c:	b00d883a 	mov	r6,r22
   43850:	d9001984 	addi	r4,sp,102
   43854:	00474480 	call	47448 <memcpy>
   43858:	d8801984 	addi	r2,sp,102
   4385c:	1585883a 	add	r2,r2,r22
   43860:	d9001904 	addi	r4,sp,100
   43864:	db400817 	ldw	r13,32(sp)
   43868:	d8c01017 	ldw	r3,64(sp)
   4386c:	1105c83a 	sub	r2,r2,r4
   43870:	d8801115 	stw	r2,68(sp)
   43874:	d9000917 	ldw	r4,36(sp)
   43878:	d9401117 	ldw	r5,68(sp)
   4387c:	20800088 	cmpgei	r2,r4,2
   43880:	214f883a 	add	r7,r4,r5
   43884:	10009726 	beq	r2,zero,43ae4 <___vfprintf_internal_r+0x219c>
   43888:	d8800c17 	ldw	r2,48(sp)
   4388c:	388f883a 	add	r7,r7,r2
   43890:	3819883a 	mov	r12,r7
   43894:	3800010e 	bge	r7,zero,4389c <___vfprintf_internal_r+0x1f54>
   43898:	0019883a 	mov	r12,zero
   4389c:	d8000815 	stw	zero,32(sp)
   438a0:	003ec906 	br	433c8 <___vfprintf_internal_r+0x1a80>
   438a4:	d8800f17 	ldw	r2,60(sp)
   438a8:	d9001643 	ldbu	r4,89(sp)
   438ac:	0011883a 	mov	r8,zero
   438b0:	d8800715 	stw	r2,28(sp)
   438b4:	0039b006 	br	41f78 <___vfprintf_internal_r+0x630>
   438b8:	d8801b04 	addi	r2,sp,108
   438bc:	d8800315 	stw	r2,12(sp)
   438c0:	d9400a17 	ldw	r5,40(sp)
   438c4:	d8801804 	addi	r2,sp,96
   438c8:	d9000517 	ldw	r4,20(sp)
   438cc:	d8800215 	stw	r2,8(sp)
   438d0:	d8801704 	addi	r2,sp,92
   438d4:	da000015 	stw	r8,0(sp)
   438d8:	d8800115 	stw	r2,4(sp)
   438dc:	01c000c4 	movi	r7,3
   438e0:	b80d883a 	mov	r6,r23
   438e4:	d8c01215 	stw	r3,72(sp)
   438e8:	db400915 	stw	r13,36(sp)
   438ec:	da000815 	stw	r8,32(sp)
   438f0:	00441180 	call	44118 <_dtoa_r>
   438f4:	102b883a 	mov	r21,r2
   438f8:	10800007 	ldb	r2,0(r2)
   438fc:	da000817 	ldw	r8,32(sp)
   43900:	db400917 	ldw	r13,36(sp)
   43904:	10800c20 	cmpeqi	r2,r2,48
   43908:	d8c01217 	ldw	r3,72(sp)
   4390c:	10009c1e 	bne	r2,zero,43b80 <___vfprintf_internal_r+0x2238>
   43910:	d8801717 	ldw	r2,92(sp)
   43914:	d9000a17 	ldw	r4,40(sp)
   43918:	1219883a 	add	r12,r2,r8
   4391c:	000d883a 	mov	r6,zero
   43920:	000f883a 	mov	r7,zero
   43924:	b80b883a 	mov	r5,r23
   43928:	d8c01315 	stw	r3,76(sp)
   4392c:	db401215 	stw	r13,72(sp)
   43930:	da000915 	stw	r8,36(sp)
   43934:	db000815 	stw	r12,32(sp)
   43938:	004d3340 	call	4d334 <__eqdf2>
   4393c:	db000817 	ldw	r12,32(sp)
   43940:	da000917 	ldw	r8,36(sp)
   43944:	db401217 	ldw	r13,72(sp)
   43948:	d8c01317 	ldw	r3,76(sp)
   4394c:	10008a1e 	bne	r2,zero,43b78 <___vfprintf_internal_r+0x2230>
   43950:	d8801717 	ldw	r2,92(sp)
   43954:	db000915 	stw	r12,36(sp)
   43958:	d8800815 	stw	r2,32(sp)
   4395c:	003e9206 	br	433a8 <___vfprintf_internal_r+0x1a60>
   43960:	d9400417 	ldw	r5,16(sp)
   43964:	d9000517 	ldw	r4,20(sp)
   43968:	d9801d04 	addi	r6,sp,116
   4396c:	db001015 	stw	r12,64(sp)
   43970:	d8c00f15 	stw	r3,60(sp)
   43974:	004913c0 	call	4913c <__sprint_r>
   43978:	1038fe1e 	bne	r2,zero,41d74 <___vfprintf_internal_r+0x42c>
   4397c:	ddc01717 	ldw	r23,92(sp)
   43980:	d9001f17 	ldw	r4,124(sp)
   43984:	db001017 	ldw	r12,64(sp)
   43988:	d8c00f17 	ldw	r3,60(sp)
   4398c:	8825883a 	mov	r18,r17
   43990:	003c8f06 	br	42bd0 <___vfprintf_internal_r+0x1288>
   43994:	b80b883a 	mov	r5,r23
   43998:	a019883a 	mov	r12,r20
   4399c:	802f883a 	mov	r23,r16
   439a0:	b029883a 	mov	r20,r22
   439a4:	9821883a 	mov	r16,r19
   439a8:	902d883a 	mov	r22,r18
   439ac:	2827883a 	mov	r19,r5
   439b0:	1825883a 	mov	r18,r3
   439b4:	d8c00817 	ldw	r3,32(sp)
   439b8:	003c2706 	br	42a58 <___vfprintf_internal_r+0x1110>
   439bc:	403e3a1e 	bne	r8,zero,432a8 <___vfprintf_internal_r+0x1960>
   439c0:	02000044 	movi	r8,1
   439c4:	003e3806 	br	432a8 <___vfprintf_internal_r+0x1960>
   439c8:	d9400417 	ldw	r5,16(sp)
   439cc:	d9000517 	ldw	r4,20(sp)
   439d0:	d9801d04 	addi	r6,sp,116
   439d4:	db001015 	stw	r12,64(sp)
   439d8:	d8c00f15 	stw	r3,60(sp)
   439dc:	004913c0 	call	4913c <__sprint_r>
   439e0:	1038e41e 	bne	r2,zero,41d74 <___vfprintf_internal_r+0x42c>
   439e4:	dd801f17 	ldw	r22,124(sp)
   439e8:	db001017 	ldw	r12,64(sp)
   439ec:	d8c00f17 	ldw	r3,60(sp)
   439f0:	8825883a 	mov	r18,r17
   439f4:	b83c640e 	bge	r23,zero,42b88 <___vfprintf_internal_r+0x1240>
   439f8:	003d3306 	br	42ec8 <___vfprintf_internal_r+0x1580>
   439fc:	02000184 	movi	r8,6
   43a00:	003e2906 	br	432a8 <___vfprintf_internal_r+0x1960>
   43a04:	d9400417 	ldw	r5,16(sp)
   43a08:	d9000517 	ldw	r4,20(sp)
   43a0c:	d9801d04 	addi	r6,sp,116
   43a10:	db000f15 	stw	r12,60(sp)
   43a14:	d8c00815 	stw	r3,32(sp)
   43a18:	004913c0 	call	4913c <__sprint_r>
   43a1c:	1038d51e 	bne	r2,zero,41d74 <___vfprintf_internal_r+0x42c>
   43a20:	ddc01717 	ldw	r23,92(sp)
   43a24:	d8800917 	ldw	r2,36(sp)
   43a28:	d9001f17 	ldw	r4,124(sp)
   43a2c:	db000f17 	ldw	r12,60(sp)
   43a30:	d8c00817 	ldw	r3,32(sp)
   43a34:	8825883a 	mov	r18,r17
   43a38:	15efc83a 	sub	r23,r2,r23
   43a3c:	003c7706 	br	42c1c <___vfprintf_internal_r+0x12d4>
   43a40:	41c0060e 	bge	r8,r7,43a5c <___vfprintf_internal_r+0x2114>
   43a44:	e73fff84 	addi	fp,fp,-2
   43a48:	3dffffc4 	addi	r23,r7,-1
   43a4c:	e005883a 	mov	r2,fp
   43a50:	b80b883a 	mov	r5,r23
   43a54:	01000ac4 	movi	r4,43
   43a58:	003f4c06 	br	4378c <___vfprintf_internal_r+0x1e44>
   43a5c:	d9000917 	ldw	r4,36(sp)
   43a60:	39000916 	blt	r7,r4,43a88 <___vfprintf_internal_r+0x2140>
   43a64:	6b40004c 	andi	r13,r13,1
   43a68:	68000f26 	beq	r13,zero,43aa8 <___vfprintf_internal_r+0x2160>
   43a6c:	d8800817 	ldw	r2,32(sp)
   43a70:	d9000c17 	ldw	r4,48(sp)
   43a74:	110f883a 	add	r7,r2,r4
   43a78:	3819883a 	mov	r12,r7
   43a7c:	38000c16 	blt	r7,zero,43ab0 <___vfprintf_internal_r+0x2168>
   43a80:	070019c4 	movi	fp,103
   43a84:	003e5006 	br	433c8 <___vfprintf_internal_r+0x1a80>
   43a88:	d8800917 	ldw	r2,36(sp)
   43a8c:	d9000c17 	ldw	r4,48(sp)
   43a90:	110f883a 	add	r7,r2,r4
   43a94:	d8800817 	ldw	r2,32(sp)
   43a98:	00800316 	blt	zero,r2,43aa8 <___vfprintf_internal_r+0x2160>
   43a9c:	d8800817 	ldw	r2,32(sp)
   43aa0:	388fc83a 	sub	r7,r7,r2
   43aa4:	39c00044 	addi	r7,r7,1
   43aa8:	3819883a 	mov	r12,r7
   43aac:	383ff40e 	bge	r7,zero,43a80 <___vfprintf_internal_r+0x2138>
   43ab0:	0019883a 	mov	r12,zero
   43ab4:	003ff206 	br	43a80 <___vfprintf_internal_r+0x2138>
   43ab8:	4019883a 	mov	r12,r8
   43abc:	dd800715 	stw	r22,28(sp)
   43ac0:	400f883a 	mov	r7,r8
   43ac4:	00386506 	br	41c5c <___vfprintf_internal_r+0x314>
   43ac8:	b8800c04 	addi	r2,r23,48
   43acc:	01000c04 	movi	r4,48
   43ad0:	d88019c5 	stb	r2,103(sp)
   43ad4:	00800104 	movi	r2,4
   43ad8:	d9001985 	stb	r4,102(sp)
   43adc:	d8801115 	stw	r2,68(sp)
   43ae0:	003f6406 	br	43874 <___vfprintf_internal_r+0x1f2c>
   43ae4:	6880004c 	andi	r2,r13,1
   43ae8:	d8800815 	stw	r2,32(sp)
   43aec:	103f661e 	bne	r2,zero,43888 <___vfprintf_internal_r+0x1f40>
   43af0:	3819883a 	mov	r12,r7
   43af4:	383e340e 	bge	r7,zero,433c8 <___vfprintf_internal_r+0x1a80>
   43af8:	0019883a 	mov	r12,zero
   43afc:	003e3206 	br	433c8 <___vfprintf_internal_r+0x1a80>
   43b00:	00bfffc4 	movi	r2,-1
   43b04:	d8800615 	stw	r2,24(sp)
   43b08:	00389e06 	br	41d84 <___vfprintf_internal_r+0x43c>
   43b0c:	9819883a 	mov	r12,r19
   43b10:	b027883a 	mov	r19,r22
   43b14:	802d883a 	mov	r22,r16
   43b18:	9021883a 	mov	r16,r18
   43b1c:	1825883a 	mov	r18,r3
   43b20:	d8c00817 	ldw	r3,32(sp)
   43b24:	10800044 	addi	r2,r2,1
   43b28:	25c9883a 	add	r4,r4,r23
   43b2c:	95800015 	stw	r22,0(r18)
   43b30:	95c00115 	stw	r23,4(r18)
   43b34:	d9001f15 	stw	r4,124(sp)
   43b38:	d8801e15 	stw	r2,120(sp)
   43b3c:	11400208 	cmpgei	r5,r2,8
   43b40:	283dbe26 	beq	r5,zero,4323c <___vfprintf_internal_r+0x18f4>
   43b44:	d9400417 	ldw	r5,16(sp)
   43b48:	d9000517 	ldw	r4,20(sp)
   43b4c:	d9801d04 	addi	r6,sp,116
   43b50:	db000f15 	stw	r12,60(sp)
   43b54:	d8c00815 	stw	r3,32(sp)
   43b58:	004913c0 	call	4913c <__sprint_r>
   43b5c:	1038851e 	bne	r2,zero,41d74 <___vfprintf_internal_r+0x42c>
   43b60:	d9001f17 	ldw	r4,124(sp)
   43b64:	d8801e17 	ldw	r2,120(sp)
   43b68:	db000f17 	ldw	r12,60(sp)
   43b6c:	d8c00817 	ldw	r3,32(sp)
   43b70:	8825883a 	mov	r18,r17
   43b74:	003db206 	br	43240 <___vfprintf_internal_r+0x18f8>
   43b78:	ab19883a 	add	r12,r21,r12
   43b7c:	003dfa06 	br	43368 <___vfprintf_internal_r+0x1a20>
   43b80:	d9000a17 	ldw	r4,40(sp)
   43b84:	000d883a 	mov	r6,zero
   43b88:	000f883a 	mov	r7,zero
   43b8c:	b80b883a 	mov	r5,r23
   43b90:	da001215 	stw	r8,72(sp)
   43b94:	d8c00915 	stw	r3,36(sp)
   43b98:	db400815 	stw	r13,32(sp)
   43b9c:	004d3340 	call	4d334 <__eqdf2>
   43ba0:	db400817 	ldw	r13,32(sp)
   43ba4:	d8c00917 	ldw	r3,36(sp)
   43ba8:	da001217 	ldw	r8,72(sp)
   43bac:	103f5826 	beq	r2,zero,43910 <___vfprintf_internal_r+0x1fc8>
   43bb0:	00800044 	movi	r2,1
   43bb4:	1205c83a 	sub	r2,r2,r8
   43bb8:	d8801715 	stw	r2,92(sp)
   43bbc:	003f5506 	br	43914 <___vfprintf_internal_r+0x1fcc>
   43bc0:	d8800b17 	ldw	r2,44(sp)
   43bc4:	10002916 	blt	r2,zero,43c6c <___vfprintf_internal_r+0x2324>
   43bc8:	d9001643 	ldbu	r4,89(sp)
   43bcc:	e0801210 	cmplti	r2,fp,72
   43bd0:	1000231e 	bne	r2,zero,43c60 <___vfprintf_internal_r+0x2318>
   43bd4:	05400174 	movhi	r21,5
   43bd8:	ad44f704 	addi	r21,r21,5084
   43bdc:	00396806 	br	42180 <___vfprintf_internal_r+0x838>
   43be0:	d9000a17 	ldw	r4,40(sp)
   43be4:	000d883a 	mov	r6,zero
   43be8:	000f883a 	mov	r7,zero
   43bec:	b80b883a 	mov	r5,r23
   43bf0:	da001315 	stw	r8,76(sp)
   43bf4:	d8c01215 	stw	r3,72(sp)
   43bf8:	db400815 	stw	r13,32(sp)
   43bfc:	004d3340 	call	4d334 <__eqdf2>
   43c00:	db400817 	ldw	r13,32(sp)
   43c04:	d8c01217 	ldw	r3,72(sp)
   43c08:	da001317 	ldw	r8,76(sp)
   43c0c:	10002a1e 	bne	r2,zero,43cb8 <___vfprintf_internal_r+0x2370>
   43c10:	b08011e0 	cmpeqi	r2,r22,71
   43c14:	d9c01717 	ldw	r7,92(sp)
   43c18:	103ed31e 	bne	r2,zero,43768 <___vfprintf_internal_r+0x1e20>
   43c1c:	397fffc4 	addi	r5,r7,-1
   43c20:	e005883a 	mov	r2,fp
   43c24:	283ed616 	blt	r5,zero,43780 <___vfprintf_internal_r+0x1e38>
   43c28:	282f883a 	mov	r23,r5
   43c2c:	01000ac4 	movi	r4,43
   43c30:	003ed606 	br	4378c <___vfprintf_internal_r+0x1e44>
   43c34:	6545c83a 	sub	r2,r12,r21
   43c38:	d9c01717 	ldw	r7,92(sp)
   43c3c:	d8800915 	stw	r2,36(sp)
   43c40:	003ec906 	br	43768 <___vfprintf_internal_r+0x1e20>
   43c44:	d8800c17 	ldw	r2,48(sp)
   43c48:	208f883a 	add	r7,r4,r2
   43c4c:	3a0f883a 	add	r7,r7,r8
   43c50:	3819883a 	mov	r12,r7
   43c54:	383ddb0e 	bge	r7,zero,433c4 <___vfprintf_internal_r+0x1a7c>
   43c58:	0019883a 	mov	r12,zero
   43c5c:	003dd906 	br	433c4 <___vfprintf_internal_r+0x1a7c>
   43c60:	05400174 	movhi	r21,5
   43c64:	ad44f604 	addi	r21,r21,5080
   43c68:	00394506 	br	42180 <___vfprintf_internal_r+0x838>
   43c6c:	00800b44 	movi	r2,45
   43c70:	d8801645 	stb	r2,89(sp)
   43c74:	01000b44 	movi	r4,45
   43c78:	003fd406 	br	43bcc <___vfprintf_internal_r+0x2284>
   43c7c:	00800084 	movi	r2,2
   43c80:	d8801115 	stw	r2,68(sp)
   43c84:	003efb06 	br	43874 <___vfprintf_internal_r+0x1f2c>
   43c88:	d8800717 	ldw	r2,28(sp)
   43c8c:	12000017 	ldw	r8,0(r2)
   43c90:	10800104 	addi	r2,r2,4
   43c94:	4000010e 	bge	r8,zero,43c9c <___vfprintf_internal_r+0x2354>
   43c98:	023fffc4 	movi	r8,-1
   43c9c:	a7000043 	ldbu	fp,1(r20)
   43ca0:	d8800715 	stw	r2,28(sp)
   43ca4:	1829883a 	mov	r20,r3
   43ca8:	e2c03fcc 	andi	r11,fp,255
   43cac:	5ac0201c 	xori	r11,r11,128
   43cb0:	5affe004 	addi	r11,r11,-128
   43cb4:	00377406 	br	41a88 <___vfprintf_internal_r+0x140>
   43cb8:	d8800917 	ldw	r2,36(sp)
   43cbc:	a899883a 	add	r12,r21,r2
   43cc0:	003da906 	br	43368 <___vfprintf_internal_r+0x1a20>
   43cc4:	1000041e 	bne	r2,zero,43cd8 <___vfprintf_internal_r+0x2390>
   43cc8:	03000044 	movi	r12,1
   43ccc:	07001984 	movi	fp,102
   43cd0:	01c00044 	movi	r7,1
   43cd4:	003dbc06 	br	433c8 <___vfprintf_internal_r+0x1a80>
   43cd8:	d8800c17 	ldw	r2,48(sp)
   43cdc:	11c00044 	addi	r7,r2,1
   43ce0:	3a0f883a 	add	r7,r7,r8
   43ce4:	3819883a 	mov	r12,r7
   43ce8:	383db60e 	bge	r7,zero,433c4 <___vfprintf_internal_r+0x1a7c>
   43cec:	003fda06 	br	43c58 <___vfprintf_internal_r+0x2310>

00043cf0 <__vfprintf_internal>:
   43cf0:	00c00174 	movhi	r3,5
   43cf4:	2005883a 	mov	r2,r4
   43cf8:	190d3017 	ldw	r4,13504(r3)
   43cfc:	300f883a 	mov	r7,r6
   43d00:	280d883a 	mov	r6,r5
   43d04:	100b883a 	mov	r5,r2
   43d08:	00419481 	jmpi	41948 <___vfprintf_internal_r>

00043d0c <__sbprintf>:
   43d0c:	28c0038b 	ldhu	r3,14(r5)
   43d10:	2880030b 	ldhu	r2,12(r5)
   43d14:	2ac01917 	ldw	r11,100(r5)
   43d18:	1806943a 	slli	r3,r3,16
   43d1c:	2a800717 	ldw	r10,28(r5)
   43d20:	2a400917 	ldw	r9,36(r5)
   43d24:	defee204 	addi	sp,sp,-1144
   43d28:	10bfff4c 	andi	r2,r2,65533
   43d2c:	10c4b03a 	or	r2,r2,r3
   43d30:	da001a04 	addi	r8,sp,104
   43d34:	00c10004 	movi	r3,1024
   43d38:	dc011a15 	stw	r16,1128(sp)
   43d3c:	2821883a 	mov	r16,r5
   43d40:	d80b883a 	mov	r5,sp
   43d44:	dc811c15 	stw	r18,1136(sp)
   43d48:	dc411b15 	stw	r17,1132(sp)
   43d4c:	dfc11d15 	stw	ra,1140(sp)
   43d50:	2025883a 	mov	r18,r4
   43d54:	dac01915 	stw	r11,100(sp)
   43d58:	d8800315 	stw	r2,12(sp)
   43d5c:	da800715 	stw	r10,28(sp)
   43d60:	da400915 	stw	r9,36(sp)
   43d64:	da000015 	stw	r8,0(sp)
   43d68:	da000415 	stw	r8,16(sp)
   43d6c:	d8c00215 	stw	r3,8(sp)
   43d70:	d8c00515 	stw	r3,20(sp)
   43d74:	d8000615 	stw	zero,24(sp)
   43d78:	00419480 	call	41948 <___vfprintf_internal_r>
   43d7c:	1023883a 	mov	r17,r2
   43d80:	10000d0e 	bge	r2,zero,43db8 <__sbprintf+0xac>
   43d84:	d880030b 	ldhu	r2,12(sp)
   43d88:	1080100c 	andi	r2,r2,64
   43d8c:	10000326 	beq	r2,zero,43d9c <__sbprintf+0x90>
   43d90:	8080030b 	ldhu	r2,12(r16)
   43d94:	10801014 	ori	r2,r2,64
   43d98:	8080030d 	sth	r2,12(r16)
   43d9c:	8805883a 	mov	r2,r17
   43da0:	dfc11d17 	ldw	ra,1140(sp)
   43da4:	dc811c17 	ldw	r18,1136(sp)
   43da8:	dc411b17 	ldw	r17,1132(sp)
   43dac:	dc011a17 	ldw	r16,1128(sp)
   43db0:	dec11e04 	addi	sp,sp,1144
   43db4:	f800283a 	ret
   43db8:	d80b883a 	mov	r5,sp
   43dbc:	9009883a 	mov	r4,r18
   43dc0:	0045b080 	call	45b08 <_fflush_r>
   43dc4:	103fef26 	beq	r2,zero,43d84 <__sbprintf+0x78>
   43dc8:	047fffc4 	movi	r17,-1
   43dcc:	003fed06 	br	43d84 <__sbprintf+0x78>

00043dd0 <__swsetup_r>:
   43dd0:	00800174 	movhi	r2,5
   43dd4:	108d3017 	ldw	r2,13504(r2)
   43dd8:	defffd04 	addi	sp,sp,-12
   43ddc:	dc400115 	stw	r17,4(sp)
   43de0:	dc000015 	stw	r16,0(sp)
   43de4:	dfc00215 	stw	ra,8(sp)
   43de8:	2023883a 	mov	r17,r4
   43dec:	2821883a 	mov	r16,r5
   43df0:	10000226 	beq	r2,zero,43dfc <__swsetup_r+0x2c>
   43df4:	10c00e17 	ldw	r3,56(r2)
   43df8:	18001d26 	beq	r3,zero,43e70 <__swsetup_r+0xa0>
   43dfc:	80c0030b 	ldhu	r3,12(r16)
   43e00:	1880020c 	andi	r2,r3,8
   43e04:	10001f26 	beq	r2,zero,43e84 <__swsetup_r+0xb4>
   43e08:	80800417 	ldw	r2,16(r16)
   43e0c:	10002626 	beq	r2,zero,43ea8 <__swsetup_r+0xd8>
   43e10:	1900004c 	andi	r4,r3,1
   43e14:	20000b1e 	bne	r4,zero,43e44 <__swsetup_r+0x74>
   43e18:	1900008c 	andi	r4,r3,2
   43e1c:	20002b1e 	bne	r4,zero,43ecc <__swsetup_r+0xfc>
   43e20:	81000517 	ldw	r4,20(r16)
   43e24:	81000215 	stw	r4,8(r16)
   43e28:	10000b26 	beq	r2,zero,43e58 <__swsetup_r+0x88>
   43e2c:	0005883a 	mov	r2,zero
   43e30:	dfc00217 	ldw	ra,8(sp)
   43e34:	dc400117 	ldw	r17,4(sp)
   43e38:	dc000017 	ldw	r16,0(sp)
   43e3c:	dec00304 	addi	sp,sp,12
   43e40:	f800283a 	ret
   43e44:	81000517 	ldw	r4,20(r16)
   43e48:	80000215 	stw	zero,8(r16)
   43e4c:	0109c83a 	sub	r4,zero,r4
   43e50:	81000615 	stw	r4,24(r16)
   43e54:	103ff51e 	bne	r2,zero,43e2c <__swsetup_r+0x5c>
   43e58:	1900200c 	andi	r4,r3,128
   43e5c:	203ff426 	beq	r4,zero,43e30 <__swsetup_r+0x60>
   43e60:	18c01014 	ori	r3,r3,64
   43e64:	80c0030d 	sth	r3,12(r16)
   43e68:	00bfffc4 	movi	r2,-1
   43e6c:	003ff006 	br	43e30 <__swsetup_r+0x60>
   43e70:	1009883a 	mov	r4,r2
   43e74:	0045f200 	call	45f20 <__sinit>
   43e78:	80c0030b 	ldhu	r3,12(r16)
   43e7c:	1880020c 	andi	r2,r3,8
   43e80:	103fe11e 	bne	r2,zero,43e08 <__swsetup_r+0x38>
   43e84:	1880040c 	andi	r2,r3,16
   43e88:	10002026 	beq	r2,zero,43f0c <__swsetup_r+0x13c>
   43e8c:	1880010c 	andi	r2,r3,4
   43e90:	1000101e 	bne	r2,zero,43ed4 <__swsetup_r+0x104>
   43e94:	80800417 	ldw	r2,16(r16)
   43e98:	19000214 	ori	r4,r3,8
   43e9c:	8100030d 	sth	r4,12(r16)
   43ea0:	2007883a 	mov	r3,r4
   43ea4:	103fda1e 	bne	r2,zero,43e10 <__swsetup_r+0x40>
   43ea8:	1900a00c 	andi	r4,r3,640
   43eac:	21008020 	cmpeqi	r4,r4,512
   43eb0:	203fd71e 	bne	r4,zero,43e10 <__swsetup_r+0x40>
   43eb4:	800b883a 	mov	r5,r16
   43eb8:	8809883a 	mov	r4,r17
   43ebc:	00469980 	call	46998 <__smakebuf_r>
   43ec0:	80c0030b 	ldhu	r3,12(r16)
   43ec4:	80800417 	ldw	r2,16(r16)
   43ec8:	003fd106 	br	43e10 <__swsetup_r+0x40>
   43ecc:	0009883a 	mov	r4,zero
   43ed0:	003fd406 	br	43e24 <__swsetup_r+0x54>
   43ed4:	81400c17 	ldw	r5,48(r16)
   43ed8:	28000626 	beq	r5,zero,43ef4 <__swsetup_r+0x124>
   43edc:	80801004 	addi	r2,r16,64
   43ee0:	28800326 	beq	r5,r2,43ef0 <__swsetup_r+0x120>
   43ee4:	8809883a 	mov	r4,r17
   43ee8:	004608c0 	call	4608c <_free_r>
   43eec:	80c0030b 	ldhu	r3,12(r16)
   43ef0:	80000c15 	stw	zero,48(r16)
   43ef4:	80800417 	ldw	r2,16(r16)
   43ef8:	013ff6c4 	movi	r4,-37
   43efc:	20c6703a 	and	r3,r4,r3
   43f00:	80000115 	stw	zero,4(r16)
   43f04:	80800015 	stw	r2,0(r16)
   43f08:	003fe306 	br	43e98 <__swsetup_r+0xc8>
   43f0c:	00800244 	movi	r2,9
   43f10:	88800015 	stw	r2,0(r17)
   43f14:	18c01014 	ori	r3,r3,64
   43f18:	003fd206 	br	43e64 <__swsetup_r+0x94>

00043f1c <quorem>:
   43f1c:	defff504 	addi	sp,sp,-44
   43f20:	dc800315 	stw	r18,12(sp)
   43f24:	20800417 	ldw	r2,16(r4)
   43f28:	2c800417 	ldw	r18,16(r5)
   43f2c:	dfc00a15 	stw	ra,40(sp)
   43f30:	df000915 	stw	fp,36(sp)
   43f34:	ddc00815 	stw	r23,32(sp)
   43f38:	dd800715 	stw	r22,28(sp)
   43f3c:	dd400615 	stw	r21,24(sp)
   43f40:	dd000515 	stw	r20,20(sp)
   43f44:	dcc00415 	stw	r19,16(sp)
   43f48:	dc400215 	stw	r17,8(sp)
   43f4c:	dc000115 	stw	r16,4(sp)
   43f50:	14806f16 	blt	r2,r18,44110 <quorem+0x1f4>
   43f54:	94bfffc4 	addi	r18,r18,-1
   43f58:	902c90ba 	slli	r22,r18,2
   43f5c:	2c000504 	addi	r16,r5,20
   43f60:	25000504 	addi	r20,r4,20
   43f64:	85a7883a 	add	r19,r16,r22
   43f68:	9f000017 	ldw	fp,0(r19)
   43f6c:	a5ad883a 	add	r22,r20,r22
   43f70:	202b883a 	mov	r21,r4
   43f74:	b1000017 	ldw	r4,0(r22)
   43f78:	e7000044 	addi	fp,fp,1
   43f7c:	282f883a 	mov	r23,r5
   43f80:	e00b883a 	mov	r5,fp
   43f84:	d9000015 	stw	r4,0(sp)
   43f88:	004c1280 	call	4c128 <__udivsi3>
   43f8c:	d9000017 	ldw	r4,0(sp)
   43f90:	1023883a 	mov	r17,r2
   43f94:	27002a36 	bltu	r4,fp,44040 <quorem+0x124>
   43f98:	800f883a 	mov	r7,r16
   43f9c:	a00d883a 	mov	r6,r20
   43fa0:	0013883a 	mov	r9,zero
   43fa4:	0009883a 	mov	r4,zero
   43fa8:	38800017 	ldw	r2,0(r7)
   43fac:	32000017 	ldw	r8,0(r6)
   43fb0:	31800104 	addi	r6,r6,4
   43fb4:	117fffcc 	andi	r5,r2,65535
   43fb8:	2c4b383a 	mul	r5,r5,r17
   43fbc:	1004d43a 	srli	r2,r2,16
   43fc0:	40ffffcc 	andi	r3,r8,65535
   43fc4:	2a4b883a 	add	r5,r5,r9
   43fc8:	2a7fffcc 	andi	r9,r5,65535
   43fcc:	1a47c83a 	sub	r3,r3,r9
   43fd0:	280ad43a 	srli	r5,r5,16
   43fd4:	1445383a 	mul	r2,r2,r17
   43fd8:	1907883a 	add	r3,r3,r4
   43fdc:	1809d43a 	srai	r4,r3,16
   43fe0:	1145883a 	add	r2,r2,r5
   43fe4:	4010d43a 	srli	r8,r8,16
   43fe8:	117fffcc 	andi	r5,r2,65535
   43fec:	2149c83a 	sub	r4,r4,r5
   43ff0:	2209883a 	add	r4,r4,r8
   43ff4:	200a943a 	slli	r5,r4,16
   43ff8:	18ffffcc 	andi	r3,r3,65535
   43ffc:	39c00104 	addi	r7,r7,4
   44000:	1946b03a 	or	r3,r3,r5
   44004:	30ffff15 	stw	r3,-4(r6)
   44008:	1012d43a 	srli	r9,r2,16
   4400c:	2009d43a 	srai	r4,r4,16
   44010:	99ffe52e 	bgeu	r19,r7,43fa8 <quorem+0x8c>
   44014:	b0800017 	ldw	r2,0(r22)
   44018:	1000091e 	bne	r2,zero,44040 <quorem+0x124>
   4401c:	b5bfff04 	addi	r22,r22,-4
   44020:	a5800336 	bltu	r20,r22,44030 <quorem+0x114>
   44024:	00000506 	br	4403c <quorem+0x120>
   44028:	94bfffc4 	addi	r18,r18,-1
   4402c:	a580032e 	bgeu	r20,r22,4403c <quorem+0x120>
   44030:	b0800017 	ldw	r2,0(r22)
   44034:	b5bfff04 	addi	r22,r22,-4
   44038:	103ffb26 	beq	r2,zero,44028 <quorem+0x10c>
   4403c:	ac800415 	stw	r18,16(r21)
   44040:	b80b883a 	mov	r5,r23
   44044:	a809883a 	mov	r4,r21
   44048:	00481880 	call	48188 <__mcmp>
   4404c:	10002316 	blt	r2,zero,440dc <quorem+0x1c0>
   44050:	a00d883a 	mov	r6,r20
   44054:	000b883a 	mov	r5,zero
   44058:	30800017 	ldw	r2,0(r6)
   4405c:	81000017 	ldw	r4,0(r16)
   44060:	31800104 	addi	r6,r6,4
   44064:	10ffffcc 	andi	r3,r2,65535
   44068:	21ffffcc 	andi	r7,r4,65535
   4406c:	19c7c83a 	sub	r3,r3,r7
   44070:	1947883a 	add	r3,r3,r5
   44074:	180bd43a 	srai	r5,r3,16
   44078:	2008d43a 	srli	r4,r4,16
   4407c:	1004d43a 	srli	r2,r2,16
   44080:	18ffffcc 	andi	r3,r3,65535
   44084:	290bc83a 	sub	r5,r5,r4
   44088:	288b883a 	add	r5,r5,r2
   4408c:	2804943a 	slli	r2,r5,16
   44090:	84000104 	addi	r16,r16,4
   44094:	280bd43a 	srai	r5,r5,16
   44098:	1886b03a 	or	r3,r3,r2
   4409c:	30ffff15 	stw	r3,-4(r6)
   440a0:	9c3fed2e 	bgeu	r19,r16,44058 <quorem+0x13c>
   440a4:	900490ba 	slli	r2,r18,2
   440a8:	a085883a 	add	r2,r20,r2
   440ac:	10c00017 	ldw	r3,0(r2)
   440b0:	1800091e 	bne	r3,zero,440d8 <quorem+0x1bc>
   440b4:	10bfff04 	addi	r2,r2,-4
   440b8:	a0800336 	bltu	r20,r2,440c8 <quorem+0x1ac>
   440bc:	00000506 	br	440d4 <quorem+0x1b8>
   440c0:	94bfffc4 	addi	r18,r18,-1
   440c4:	a080032e 	bgeu	r20,r2,440d4 <quorem+0x1b8>
   440c8:	10c00017 	ldw	r3,0(r2)
   440cc:	10bfff04 	addi	r2,r2,-4
   440d0:	183ffb26 	beq	r3,zero,440c0 <quorem+0x1a4>
   440d4:	ac800415 	stw	r18,16(r21)
   440d8:	8c400044 	addi	r17,r17,1
   440dc:	8805883a 	mov	r2,r17
   440e0:	dfc00a17 	ldw	ra,40(sp)
   440e4:	df000917 	ldw	fp,36(sp)
   440e8:	ddc00817 	ldw	r23,32(sp)
   440ec:	dd800717 	ldw	r22,28(sp)
   440f0:	dd400617 	ldw	r21,24(sp)
   440f4:	dd000517 	ldw	r20,20(sp)
   440f8:	dcc00417 	ldw	r19,16(sp)
   440fc:	dc800317 	ldw	r18,12(sp)
   44100:	dc400217 	ldw	r17,8(sp)
   44104:	dc000117 	ldw	r16,4(sp)
   44108:	dec00b04 	addi	sp,sp,44
   4410c:	f800283a 	ret
   44110:	0005883a 	mov	r2,zero
   44114:	003ff206 	br	440e0 <quorem+0x1c4>

00044118 <_dtoa_r>:
   44118:	20801017 	ldw	r2,64(r4)
   4411c:	deffe104 	addi	sp,sp,-124
   44120:	dd401a15 	stw	r21,104(sp)
   44124:	dc801715 	stw	r18,92(sp)
   44128:	dc401615 	stw	r17,88(sp)
   4412c:	dc001515 	stw	r16,84(sp)
   44130:	dfc01e15 	stw	ra,120(sp)
   44134:	df001d15 	stw	fp,116(sp)
   44138:	ddc01c15 	stw	r23,112(sp)
   4413c:	dd801b15 	stw	r22,108(sp)
   44140:	dd001915 	stw	r20,100(sp)
   44144:	dcc01815 	stw	r19,96(sp)
   44148:	d9400215 	stw	r5,8(sp)
   4414c:	d9c00115 	stw	r7,4(sp)
   44150:	dc402117 	ldw	r17,132(sp)
   44154:	2021883a 	mov	r16,r4
   44158:	3025883a 	mov	r18,r6
   4415c:	302b883a 	mov	r21,r6
   44160:	10000826 	beq	r2,zero,44184 <_dtoa_r+0x6c>
   44164:	21801117 	ldw	r6,68(r4)
   44168:	00c00044 	movi	r3,1
   4416c:	100b883a 	mov	r5,r2
   44170:	1986983a 	sll	r3,r3,r6
   44174:	11800115 	stw	r6,4(r2)
   44178:	10c00215 	stw	r3,8(r2)
   4417c:	004780c0 	call	4780c <_Bfree>
   44180:	80001015 	stw	zero,64(r16)
   44184:	90019316 	blt	r18,zero,447d4 <_dtoa_r+0x6bc>
   44188:	88000015 	stw	zero,0(r17)
   4418c:	909ffc2c 	andhi	r2,r18,32752
   44190:	00dffc34 	movhi	r3,32752
   44194:	10c19826 	beq	r2,r3,447f8 <_dtoa_r+0x6e0>
   44198:	d9000217 	ldw	r4,8(sp)
   4419c:	000d883a 	mov	r6,zero
   441a0:	000f883a 	mov	r7,zero
   441a4:	a80b883a 	mov	r5,r21
   441a8:	004d3340 	call	4d334 <__eqdf2>
   441ac:	1000181e 	bne	r2,zero,44210 <_dtoa_r+0xf8>
   441b0:	d8c02017 	ldw	r3,128(sp)
   441b4:	00800044 	movi	r2,1
   441b8:	18800015 	stw	r2,0(r3)
   441bc:	d8802217 	ldw	r2,136(sp)
   441c0:	10000426 	beq	r2,zero,441d4 <_dtoa_r+0xbc>
   441c4:	d8c02217 	ldw	r3,136(sp)
   441c8:	00800174 	movhi	r2,5
   441cc:	10850444 	addi	r2,r2,5137
   441d0:	18800015 	stw	r2,0(r3)
   441d4:	07000174 	movhi	fp,5
   441d8:	e7050404 	addi	fp,fp,5136
   441dc:	e005883a 	mov	r2,fp
   441e0:	dfc01e17 	ldw	ra,120(sp)
   441e4:	df001d17 	ldw	fp,116(sp)
   441e8:	ddc01c17 	ldw	r23,112(sp)
   441ec:	dd801b17 	ldw	r22,108(sp)
   441f0:	dd401a17 	ldw	r21,104(sp)
   441f4:	dd001917 	ldw	r20,100(sp)
   441f8:	dcc01817 	ldw	r19,96(sp)
   441fc:	dc801717 	ldw	r18,92(sp)
   44200:	dc401617 	ldw	r17,88(sp)
   44204:	dc001517 	ldw	r16,84(sp)
   44208:	dec01f04 	addi	sp,sp,124
   4420c:	f800283a 	ret
   44210:	dcc00217 	ldw	r19,8(sp)
   44214:	d8801304 	addi	r2,sp,76
   44218:	9022d53a 	srli	r17,r18,20
   4421c:	d8800015 	stw	r2,0(sp)
   44220:	d9c01404 	addi	r7,sp,80
   44224:	980b883a 	mov	r5,r19
   44228:	a80d883a 	mov	r6,r21
   4422c:	8009883a 	mov	r4,r16
   44230:	00485700 	call	48570 <__d2b>
   44234:	102f883a 	mov	r23,r2
   44238:	8801811e 	bne	r17,zero,44840 <_dtoa_r+0x728>
   4423c:	dd001317 	ldw	r20,76(sp)
   44240:	dc401417 	ldw	r17,80(sp)
   44244:	a463883a 	add	r17,r20,r17
   44248:	88810c84 	addi	r2,r17,1074
   4424c:	10c00850 	cmplti	r3,r2,33
   44250:	1803101e 	bne	r3,zero,44e94 <_dtoa_r+0xd7c>
   44254:	00c01004 	movi	r3,64
   44258:	1887c83a 	sub	r3,r3,r2
   4425c:	90c8983a 	sll	r4,r18,r3
   44260:	d8c00217 	ldw	r3,8(sp)
   44264:	88810484 	addi	r2,r17,1042
   44268:	1884d83a 	srl	r2,r3,r2
   4426c:	2088b03a 	or	r4,r4,r2
   44270:	004e7bc0 	call	4e7bc <__floatunsidf>
   44274:	1009883a 	mov	r4,r2
   44278:	00bf8434 	movhi	r2,65040
   4427c:	188b883a 	add	r5,r3,r2
   44280:	00800044 	movi	r2,1
   44284:	8c7fffc4 	addi	r17,r17,-1
   44288:	d8800915 	stw	r2,36(sp)
   4428c:	000d883a 	mov	r6,zero
   44290:	01cffe34 	movhi	r7,16376
   44294:	004dc940 	call	4dc94 <__subdf3>
   44298:	0198dbf4 	movhi	r6,25455
   4429c:	01cff4f4 	movhi	r7,16339
   442a0:	3190d844 	addi	r6,r6,17249
   442a4:	39e1e9c4 	addi	r7,r7,-30809
   442a8:	1009883a 	mov	r4,r2
   442ac:	180b883a 	mov	r5,r3
   442b0:	004d5bc0 	call	4d5bc <__muldf3>
   442b4:	01a2d874 	movhi	r6,35681
   442b8:	01cff1f4 	movhi	r7,16327
   442bc:	31b22cc4 	addi	r6,r6,-14157
   442c0:	39e28a04 	addi	r7,r7,-30168
   442c4:	180b883a 	mov	r5,r3
   442c8:	1009883a 	mov	r4,r2
   442cc:	004c1e80 	call	4c1e8 <__adddf3>
   442d0:	8809883a 	mov	r4,r17
   442d4:	1027883a 	mov	r19,r2
   442d8:	1825883a 	mov	r18,r3
   442dc:	004e7040 	call	4e704 <__floatsidf>
   442e0:	019427f4 	movhi	r6,20639
   442e4:	01cff4f4 	movhi	r7,16339
   442e8:	319e7ec4 	addi	r6,r6,31227
   442ec:	39d104c4 	addi	r7,r7,17427
   442f0:	1009883a 	mov	r4,r2
   442f4:	180b883a 	mov	r5,r3
   442f8:	004d5bc0 	call	4d5bc <__muldf3>
   442fc:	100d883a 	mov	r6,r2
   44300:	180f883a 	mov	r7,r3
   44304:	9809883a 	mov	r4,r19
   44308:	900b883a 	mov	r5,r18
   4430c:	004c1e80 	call	4c1e8 <__adddf3>
   44310:	1009883a 	mov	r4,r2
   44314:	180b883a 	mov	r5,r3
   44318:	1027883a 	mov	r19,r2
   4431c:	1825883a 	mov	r18,r3
   44320:	004e6840 	call	4e684 <__fixdfsi>
   44324:	000d883a 	mov	r6,zero
   44328:	000f883a 	mov	r7,zero
   4432c:	9809883a 	mov	r4,r19
   44330:	900b883a 	mov	r5,r18
   44334:	102d883a 	mov	r22,r2
   44338:	004d4c40 	call	4d4c4 <__ledf2>
   4433c:	1002a616 	blt	r2,zero,44dd8 <_dtoa_r+0xcc0>
   44340:	a469c83a 	sub	r20,r20,r17
   44344:	a0ffffc4 	addi	r3,r20,-1
   44348:	b08005e8 	cmpgeui	r2,r22,23
   4434c:	d8c00415 	stw	r3,16(sp)
   44350:	1002981e 	bne	r2,zero,44db4 <_dtoa_r+0xc9c>
   44354:	b00490fa 	slli	r2,r22,3
   44358:	02c00174 	movhi	r11,5
   4435c:	5ac54b04 	addi	r11,r11,5420
   44360:	5885883a 	add	r2,r11,r2
   44364:	11800017 	ldw	r6,0(r2)
   44368:	11c00117 	ldw	r7,4(r2)
   4436c:	d9000217 	ldw	r4,8(sp)
   44370:	a80b883a 	mov	r5,r21
   44374:	004d4c40 	call	4d4c4 <__ledf2>
   44378:	1001d60e 	bge	r2,zero,44ad4 <_dtoa_r+0x9bc>
   4437c:	d8000815 	stw	zero,32(sp)
   44380:	a0bfffc4 	addi	r2,r20,-1
   44384:	b5bfffc4 	addi	r22,r22,-1
   44388:	10028e16 	blt	r2,zero,44dc4 <_dtoa_r+0xcac>
   4438c:	d8000515 	stw	zero,20(sp)
   44390:	b001d30e 	bge	r22,zero,44ae0 <_dtoa_r+0x9c8>
   44394:	d8800517 	ldw	r2,20(sp)
   44398:	d8c00117 	ldw	r3,4(sp)
   4439c:	dd800615 	stw	r22,24(sp)
   443a0:	1585c83a 	sub	r2,r2,r22
   443a4:	d8800515 	stw	r2,20(sp)
   443a8:	0585c83a 	sub	r2,zero,r22
   443ac:	d8800315 	stw	r2,12(sp)
   443b0:	188002a8 	cmpgeui	r2,r3,10
   443b4:	002d883a 	mov	r22,zero
   443b8:	1001d11e 	bne	r2,zero,44b00 <_dtoa_r+0x9e8>
   443bc:	18800190 	cmplti	r2,r3,6
   443c0:	1002a31e 	bne	r2,zero,44e50 <_dtoa_r+0xd38>
   443c4:	18ffff04 	addi	r3,r3,-4
   443c8:	d8c00115 	stw	r3,4(sp)
   443cc:	188000e0 	cmpeqi	r2,r3,3
   443d0:	0023883a 	mov	r17,zero
   443d4:	1003b71e 	bne	r2,zero,452b4 <_dtoa_r+0x119c>
   443d8:	18800108 	cmpgei	r2,r3,4
   443dc:	1003a626 	beq	r2,zero,45278 <_dtoa_r+0x1160>
   443e0:	d8800117 	ldw	r2,4(sp)
   443e4:	10800120 	cmpeqi	r2,r2,4
   443e8:	1003611e 	bne	r2,zero,45170 <_dtoa_r+0x1058>
   443ec:	00800144 	movi	r2,5
   443f0:	d8800115 	stw	r2,4(sp)
   443f4:	00800044 	movi	r2,1
   443f8:	d8800715 	stw	r2,28(sp)
   443fc:	d8801f17 	ldw	r2,124(sp)
   44400:	d8c00617 	ldw	r3,24(sp)
   44404:	10c5883a 	add	r2,r2,r3
   44408:	14800044 	addi	r18,r2,1
   4440c:	d8800a15 	stw	r2,40(sp)
   44410:	900d883a 	mov	r6,r18
   44414:	0485320e 	bge	zero,r18,458e0 <_dtoa_r+0x17c8>
   44418:	30800608 	cmpgei	r2,r6,24
   4441c:	10053026 	beq	r2,zero,458e0 <_dtoa_r+0x17c8>
   44420:	00c00044 	movi	r3,1
   44424:	00800104 	movi	r2,4
   44428:	1085883a 	add	r2,r2,r2
   4442c:	11000504 	addi	r4,r2,20
   44430:	180b883a 	mov	r5,r3
   44434:	18c00044 	addi	r3,r3,1
   44438:	313ffb2e 	bgeu	r6,r4,44428 <_dtoa_r+0x310>
   4443c:	81401115 	stw	r5,68(r16)
   44440:	8009883a 	mov	r4,r16
   44444:	00477680 	call	47768 <_Balloc>
   44448:	1039883a 	mov	fp,r2
   4444c:	10050d26 	beq	r2,zero,45884 <_dtoa_r+0x176c>
   44450:	80801015 	stw	r2,64(r16)
   44454:	908003e8 	cmpgeui	r2,r18,15
   44458:	1001291e 	bne	r2,zero,44900 <_dtoa_r+0x7e8>
   4445c:	88012826 	beq	r17,zero,44900 <_dtoa_r+0x7e8>
   44460:	d8c00617 	ldw	r3,24(sp)
   44464:	00c3b40e 	bge	zero,r3,45338 <_dtoa_r+0x1220>
   44468:	188003cc 	andi	r2,r3,15
   4446c:	100490fa 	slli	r2,r2,3
   44470:	1823d13a 	srai	r17,r3,4
   44474:	02c00174 	movhi	r11,5
   44478:	5ac54b04 	addi	r11,r11,5420
   4447c:	5885883a 	add	r2,r11,r2
   44480:	88c0040c 	andi	r3,r17,16
   44484:	12400017 	ldw	r9,0(r2)
   44488:	12000117 	ldw	r8,4(r2)
   4448c:	18037626 	beq	r3,zero,45268 <_dtoa_r+0x1150>
   44490:	00800174 	movhi	r2,5
   44494:	10854104 	addi	r2,r2,5380
   44498:	d9000217 	ldw	r4,8(sp)
   4449c:	11800817 	ldw	r6,32(r2)
   444a0:	11c00917 	ldw	r7,36(r2)
   444a4:	a80b883a 	mov	r5,r21
   444a8:	da000c15 	stw	r8,48(sp)
   444ac:	da400b15 	stw	r9,44(sp)
   444b0:	004caec0 	call	4caec <__divdf3>
   444b4:	da400b17 	ldw	r9,44(sp)
   444b8:	da000c17 	ldw	r8,48(sp)
   444bc:	8c4003cc 	andi	r17,r17,15
   444c0:	1009883a 	mov	r4,r2
   444c4:	180b883a 	mov	r5,r3
   444c8:	04c000c4 	movi	r19,3
   444cc:	88001c26 	beq	r17,zero,44540 <_dtoa_r+0x428>
   444d0:	05000174 	movhi	r20,5
   444d4:	a5054104 	addi	r20,r20,5380
   444d8:	dc800b15 	stw	r18,44(sp)
   444dc:	dc000c15 	stw	r16,48(sp)
   444e0:	9825883a 	mov	r18,r19
   444e4:	a021883a 	mov	r16,r20
   444e8:	2827883a 	mov	r19,r5
   444ec:	2029883a 	mov	r20,r4
   444f0:	400b883a 	mov	r5,r8
   444f4:	4809883a 	mov	r4,r9
   444f8:	8980004c 	andi	r6,r17,1
   444fc:	30000626 	beq	r6,zero,44518 <_dtoa_r+0x400>
   44500:	81800017 	ldw	r6,0(r16)
   44504:	81c00117 	ldw	r7,4(r16)
   44508:	94800044 	addi	r18,r18,1
   4450c:	004d5bc0 	call	4d5bc <__muldf3>
   44510:	1009883a 	mov	r4,r2
   44514:	180b883a 	mov	r5,r3
   44518:	8823d07a 	srai	r17,r17,1
   4451c:	84000204 	addi	r16,r16,8
   44520:	883ff51e 	bne	r17,zero,444f8 <_dtoa_r+0x3e0>
   44524:	2811883a 	mov	r8,r5
   44528:	dc000c17 	ldw	r16,48(sp)
   4452c:	980b883a 	mov	r5,r19
   44530:	9027883a 	mov	r19,r18
   44534:	dc800b17 	ldw	r18,44(sp)
   44538:	2013883a 	mov	r9,r4
   4453c:	a009883a 	mov	r4,r20
   44540:	480d883a 	mov	r6,r9
   44544:	400f883a 	mov	r7,r8
   44548:	004caec0 	call	4caec <__divdf3>
   4454c:	1023883a 	mov	r17,r2
   44550:	1829883a 	mov	r20,r3
   44554:	d8800817 	ldw	r2,32(sp)
   44558:	10000626 	beq	r2,zero,44574 <_dtoa_r+0x45c>
   4455c:	000d883a 	mov	r6,zero
   44560:	01cffc34 	movhi	r7,16368
   44564:	8809883a 	mov	r4,r17
   44568:	a00b883a 	mov	r5,r20
   4456c:	004d4c40 	call	4d4c4 <__ledf2>
   44570:	10045a16 	blt	r2,zero,456dc <_dtoa_r+0x15c4>
   44574:	9809883a 	mov	r4,r19
   44578:	004e7040 	call	4e704 <__floatsidf>
   4457c:	880d883a 	mov	r6,r17
   44580:	a00f883a 	mov	r7,r20
   44584:	1009883a 	mov	r4,r2
   44588:	180b883a 	mov	r5,r3
   4458c:	004d5bc0 	call	4d5bc <__muldf3>
   44590:	000d883a 	mov	r6,zero
   44594:	01d00734 	movhi	r7,16412
   44598:	1009883a 	mov	r4,r2
   4459c:	180b883a 	mov	r5,r3
   445a0:	004c1e80 	call	4c1e8 <__adddf3>
   445a4:	d8800b15 	stw	r2,44(sp)
   445a8:	00bf3034 	movhi	r2,64704
   445ac:	18a7883a 	add	r19,r3,r2
   445b0:	9000c026 	beq	r18,zero,448b4 <_dtoa_r+0x79c>
   445b4:	d8800617 	ldw	r2,24(sp)
   445b8:	dc800c15 	stw	r18,48(sp)
   445bc:	d8801115 	stw	r2,68(sp)
   445c0:	d8800c17 	ldw	r2,48(sp)
   445c4:	02c00174 	movhi	r11,5
   445c8:	5ac54b04 	addi	r11,r11,5420
   445cc:	10bfffc4 	addi	r2,r2,-1
   445d0:	100490fa 	slli	r2,r2,3
   445d4:	8809883a 	mov	r4,r17
   445d8:	a00b883a 	mov	r5,r20
   445dc:	5885883a 	add	r2,r11,r2
   445e0:	10c00017 	ldw	r3,0(r2)
   445e4:	10800117 	ldw	r2,4(r2)
   445e8:	dac00d15 	stw	r11,52(sp)
   445ec:	d8c00f15 	stw	r3,60(sp)
   445f0:	d8801015 	stw	r2,64(sp)
   445f4:	004e6840 	call	4e684 <__fixdfsi>
   445f8:	11400c04 	addi	r5,r2,48
   445fc:	1009883a 	mov	r4,r2
   44600:	d9400e15 	stw	r5,56(sp)
   44604:	004e7040 	call	4e704 <__floatsidf>
   44608:	8809883a 	mov	r4,r17
   4460c:	a00b883a 	mov	r5,r20
   44610:	100d883a 	mov	r6,r2
   44614:	180f883a 	mov	r7,r3
   44618:	004dc940 	call	4dc94 <__subdf3>
   4461c:	d9000717 	ldw	r4,28(sp)
   44620:	dac00d17 	ldw	r11,52(sp)
   44624:	e2000044 	addi	r8,fp,1
   44628:	1029883a 	mov	r20,r2
   4462c:	1823883a 	mov	r17,r3
   44630:	2003ce26 	beq	r4,zero,4556c <_dtoa_r+0x1454>
   44634:	d9800f17 	ldw	r6,60(sp)
   44638:	d9c01017 	ldw	r7,64(sp)
   4463c:	0009883a 	mov	r4,zero
   44640:	014ff834 	movhi	r5,16352
   44644:	da001215 	stw	r8,72(sp)
   44648:	004caec0 	call	4caec <__divdf3>
   4464c:	d9800b17 	ldw	r6,44(sp)
   44650:	980f883a 	mov	r7,r19
   44654:	1009883a 	mov	r4,r2
   44658:	180b883a 	mov	r5,r3
   4465c:	004dc940 	call	4dc94 <__subdf3>
   44660:	1009883a 	mov	r4,r2
   44664:	d8800e17 	ldw	r2,56(sp)
   44668:	180b883a 	mov	r5,r3
   4466c:	a00d883a 	mov	r6,r20
   44670:	e0800005 	stb	r2,0(fp)
   44674:	880f883a 	mov	r7,r17
   44678:	d9000d15 	stw	r4,52(sp)
   4467c:	d8c00b15 	stw	r3,44(sp)
   44680:	004d3c80 	call	4d3c8 <__gedf2>
   44684:	d9400b17 	ldw	r5,44(sp)
   44688:	d9000d17 	ldw	r4,52(sp)
   4468c:	da001217 	ldw	r8,72(sp)
   44690:	00840b16 	blt	zero,r2,456c0 <_dtoa_r+0x15a8>
   44694:	0005883a 	mov	r2,zero
   44698:	dc800d15 	stw	r18,52(sp)
   4469c:	dd800e15 	stw	r22,56(sp)
   446a0:	ddc00b15 	stw	r23,44(sp)
   446a4:	dd400f15 	stw	r21,60(sp)
   446a8:	ddc00c17 	ldw	r23,48(sp)
   446ac:	402d883a 	mov	r22,r8
   446b0:	dc000c15 	stw	r16,48(sp)
   446b4:	2025883a 	mov	r18,r4
   446b8:	2827883a 	mov	r19,r5
   446bc:	102b883a 	mov	r21,r2
   446c0:	00002606 	br	4475c <_dtoa_r+0x644>
   446c4:	ad400044 	addi	r21,r21,1
   446c8:	adc4460e 	bge	r21,r23,457e4 <_dtoa_r+0x16cc>
   446cc:	9009883a 	mov	r4,r18
   446d0:	980b883a 	mov	r5,r19
   446d4:	000d883a 	mov	r6,zero
   446d8:	01d00934 	movhi	r7,16420
   446dc:	004d5bc0 	call	4d5bc <__muldf3>
   446e0:	000d883a 	mov	r6,zero
   446e4:	01d00934 	movhi	r7,16420
   446e8:	a009883a 	mov	r4,r20
   446ec:	880b883a 	mov	r5,r17
   446f0:	1025883a 	mov	r18,r2
   446f4:	1827883a 	mov	r19,r3
   446f8:	004d5bc0 	call	4d5bc <__muldf3>
   446fc:	180b883a 	mov	r5,r3
   44700:	1009883a 	mov	r4,r2
   44704:	1823883a 	mov	r17,r3
   44708:	1029883a 	mov	r20,r2
   4470c:	004e6840 	call	4e684 <__fixdfsi>
   44710:	1009883a 	mov	r4,r2
   44714:	1021883a 	mov	r16,r2
   44718:	004e7040 	call	4e704 <__floatsidf>
   4471c:	a009883a 	mov	r4,r20
   44720:	880b883a 	mov	r5,r17
   44724:	100d883a 	mov	r6,r2
   44728:	180f883a 	mov	r7,r3
   4472c:	004dc940 	call	4dc94 <__subdf3>
   44730:	b5800044 	addi	r22,r22,1
   44734:	82000c04 	addi	r8,r16,48
   44738:	b23fffc5 	stb	r8,-1(r22)
   4473c:	900d883a 	mov	r6,r18
   44740:	980f883a 	mov	r7,r19
   44744:	1009883a 	mov	r4,r2
   44748:	180b883a 	mov	r5,r3
   4474c:	1029883a 	mov	r20,r2
   44750:	1823883a 	mov	r17,r3
   44754:	004d4c40 	call	4d4c4 <__ledf2>
   44758:	10041e16 	blt	r2,zero,457d4 <_dtoa_r+0x16bc>
   4475c:	a00d883a 	mov	r6,r20
   44760:	880f883a 	mov	r7,r17
   44764:	0009883a 	mov	r4,zero
   44768:	014ffc34 	movhi	r5,16368
   4476c:	004dc940 	call	4dc94 <__subdf3>
   44770:	900d883a 	mov	r6,r18
   44774:	980f883a 	mov	r7,r19
   44778:	1009883a 	mov	r4,r2
   4477c:	180b883a 	mov	r5,r3
   44780:	004d4c40 	call	4d4c4 <__ledf2>
   44784:	103fcf0e 	bge	r2,zero,446c4 <_dtoa_r+0x5ac>
   44788:	d8801117 	ldw	r2,68(sp)
   4478c:	b027883a 	mov	r19,r22
   44790:	ddc00b17 	ldw	r23,44(sp)
   44794:	dc000c17 	ldw	r16,48(sp)
   44798:	15800044 	addi	r22,r2,1
   4479c:	00000106 	br	447a4 <_dtoa_r+0x68c>
   447a0:	e4c3ed26 	beq	fp,r19,45758 <_dtoa_r+0x1640>
   447a4:	98ffffc3 	ldbu	r3,-1(r19)
   447a8:	9811883a 	mov	r8,r19
   447ac:	9cffffc4 	addi	r19,r19,-1
   447b0:	18803fcc 	andi	r2,r3,255
   447b4:	1080201c 	xori	r2,r2,128
   447b8:	10bfe004 	addi	r2,r2,-128
   447bc:	10800e60 	cmpeqi	r2,r2,57
   447c0:	103ff71e 	bne	r2,zero,447a0 <_dtoa_r+0x688>
   447c4:	18c00044 	addi	r3,r3,1
   447c8:	98c00005 	stb	r3,0(r19)
   447cc:	b02b883a 	mov	r21,r22
   447d0:	00015a06 	br	44d3c <_dtoa_r+0xc24>
   447d4:	00a00034 	movhi	r2,32768
   447d8:	10bfffc4 	addi	r2,r2,-1
   447dc:	90aa703a 	and	r21,r18,r2
   447e0:	a825883a 	mov	r18,r21
   447e4:	00800044 	movi	r2,1
   447e8:	88800015 	stw	r2,0(r17)
   447ec:	00dffc34 	movhi	r3,32752
   447f0:	909ffc2c 	andhi	r2,r18,32752
   447f4:	10fe681e 	bne	r2,r3,44198 <_dtoa_r+0x80>
   447f8:	d9002017 	ldw	r4,128(sp)
   447fc:	00c9c3c4 	movi	r3,9999
   44800:	00800434 	movhi	r2,16
   44804:	20c00015 	stw	r3,0(r4)
   44808:	d8c00217 	ldw	r3,8(sp)
   4480c:	10bfffc4 	addi	r2,r2,-1
   44810:	9084703a 	and	r2,r18,r2
   44814:	10c4b03a 	or	r2,r2,r3
   44818:	1000121e 	bne	r2,zero,44864 <_dtoa_r+0x74c>
   4481c:	d8802217 	ldw	r2,136(sp)
   44820:	07000174 	movhi	fp,5
   44824:	10041e26 	beq	r2,zero,458a0 <_dtoa_r+0x1788>
   44828:	00800174 	movhi	r2,5
   4482c:	e7050d04 	addi	fp,fp,5172
   44830:	10850f04 	addi	r2,r2,5180
   44834:	d8c02217 	ldw	r3,136(sp)
   44838:	18800015 	stw	r2,0(r3)
   4483c:	003e6706 	br	441dc <_dtoa_r+0xc4>
   44840:	01400434 	movhi	r5,16
   44844:	297fffc4 	addi	r5,r5,-1
   44848:	a94a703a 	and	r5,r21,r5
   4484c:	dd001317 	ldw	r20,76(sp)
   44850:	9809883a 	mov	r4,r19
   44854:	294ffc34 	orhi	r5,r5,16368
   44858:	8c7f0044 	addi	r17,r17,-1023
   4485c:	d8000915 	stw	zero,36(sp)
   44860:	003e8a06 	br	4428c <_dtoa_r+0x174>
   44864:	d8802217 	ldw	r2,136(sp)
   44868:	07000174 	movhi	fp,5
   4486c:	10023c1e 	bne	r2,zero,45160 <_dtoa_r+0x1048>
   44870:	e7051004 	addi	fp,fp,5184
   44874:	003e5906 	br	441dc <_dtoa_r+0xc4>
   44878:	9809883a 	mov	r4,r19
   4487c:	004e7040 	call	4e704 <__floatsidf>
   44880:	880d883a 	mov	r6,r17
   44884:	a00f883a 	mov	r7,r20
   44888:	1009883a 	mov	r4,r2
   4488c:	180b883a 	mov	r5,r3
   44890:	004d5bc0 	call	4d5bc <__muldf3>
   44894:	000d883a 	mov	r6,zero
   44898:	01d00734 	movhi	r7,16412
   4489c:	1009883a 	mov	r4,r2
   448a0:	180b883a 	mov	r5,r3
   448a4:	004c1e80 	call	4c1e8 <__adddf3>
   448a8:	d8800b15 	stw	r2,44(sp)
   448ac:	00bf3034 	movhi	r2,64704
   448b0:	18a7883a 	add	r19,r3,r2
   448b4:	8809883a 	mov	r4,r17
   448b8:	a00b883a 	mov	r5,r20
   448bc:	000d883a 	mov	r6,zero
   448c0:	01d00534 	movhi	r7,16404
   448c4:	004dc940 	call	4dc94 <__subdf3>
   448c8:	d9800b17 	ldw	r6,44(sp)
   448cc:	980f883a 	mov	r7,r19
   448d0:	1009883a 	mov	r4,r2
   448d4:	180b883a 	mov	r5,r3
   448d8:	1029883a 	mov	r20,r2
   448dc:	1823883a 	mov	r17,r3
   448e0:	004d3c80 	call	4d3c8 <__gedf2>
   448e4:	0083a716 	blt	zero,r2,45784 <_dtoa_r+0x166c>
   448e8:	d9800b17 	ldw	r6,44(sp)
   448ec:	99e0003c 	xorhi	r7,r19,32768
   448f0:	a009883a 	mov	r4,r20
   448f4:	880b883a 	mov	r5,r17
   448f8:	004d4c40 	call	4d4c4 <__ledf2>
   448fc:	10001d16 	blt	r2,zero,44974 <_dtoa_r+0x85c>
   44900:	d8801417 	ldw	r2,80(sp)
   44904:	10008816 	blt	r2,zero,44b28 <_dtoa_r+0xa10>
   44908:	d8c00617 	ldw	r3,24(sp)
   4490c:	18c003d0 	cmplti	r3,r3,15
   44910:	18008526 	beq	r3,zero,44b28 <_dtoa_r+0xa10>
   44914:	02c00174 	movhi	r11,5
   44918:	5ac54b04 	addi	r11,r11,5420
   4491c:	d8800617 	ldw	r2,24(sp)
   44920:	100490fa 	slli	r2,r2,3
   44924:	5885883a 	add	r2,r11,r2
   44928:	10c00017 	ldw	r3,0(r2)
   4492c:	10800117 	ldw	r2,4(r2)
   44930:	d8c00115 	stw	r3,4(sp)
   44934:	d8800315 	stw	r2,12(sp)
   44938:	d8801f17 	ldw	r2,124(sp)
   4493c:	1000130e 	bge	r2,zero,4498c <_dtoa_r+0x874>
   44940:	04801216 	blt	zero,r18,4498c <_dtoa_r+0x874>
   44944:	90000b1e 	bne	r18,zero,44974 <_dtoa_r+0x85c>
   44948:	d9000117 	ldw	r4,4(sp)
   4494c:	d9400317 	ldw	r5,12(sp)
   44950:	000d883a 	mov	r6,zero
   44954:	01d00534 	movhi	r7,16404
   44958:	004d5bc0 	call	4d5bc <__muldf3>
   4495c:	d9000217 	ldw	r4,8(sp)
   44960:	100d883a 	mov	r6,r2
   44964:	180f883a 	mov	r7,r3
   44968:	a80b883a 	mov	r5,r21
   4496c:	004d4c40 	call	4d4c4 <__ledf2>
   44970:	00838416 	blt	zero,r2,45784 <_dtoa_r+0x166c>
   44974:	e011883a 	mov	r8,fp
   44978:	d8000315 	stw	zero,12(sp)
   4497c:	0023883a 	mov	r17,zero
   44980:	d8801f17 	ldw	r2,124(sp)
   44984:	00a4303a 	nor	r18,zero,r2
   44988:	0001da06 	br	450f4 <_dtoa_r+0xfdc>
   4498c:	dcc00117 	ldw	r19,4(sp)
   44990:	dd000317 	ldw	r20,12(sp)
   44994:	dd800217 	ldw	r22,8(sp)
   44998:	980d883a 	mov	r6,r19
   4499c:	a00f883a 	mov	r7,r20
   449a0:	b009883a 	mov	r4,r22
   449a4:	a80b883a 	mov	r5,r21
   449a8:	004caec0 	call	4caec <__divdf3>
   449ac:	180b883a 	mov	r5,r3
   449b0:	1009883a 	mov	r4,r2
   449b4:	004e6840 	call	4e684 <__fixdfsi>
   449b8:	1009883a 	mov	r4,r2
   449bc:	1023883a 	mov	r17,r2
   449c0:	004e7040 	call	4e704 <__floatsidf>
   449c4:	980d883a 	mov	r6,r19
   449c8:	a00f883a 	mov	r7,r20
   449cc:	1009883a 	mov	r4,r2
   449d0:	180b883a 	mov	r5,r3
   449d4:	004d5bc0 	call	4d5bc <__muldf3>
   449d8:	100d883a 	mov	r6,r2
   449dc:	b009883a 	mov	r4,r22
   449e0:	a80b883a 	mov	r5,r21
   449e4:	180f883a 	mov	r7,r3
   449e8:	004dc940 	call	4dc94 <__subdf3>
   449ec:	89000c04 	addi	r4,r17,48
   449f0:	e1000005 	stb	r4,0(fp)
   449f4:	91800060 	cmpeqi	r6,r18,1
   449f8:	1009883a 	mov	r4,r2
   449fc:	180b883a 	mov	r5,r3
   44a00:	e4c00044 	addi	r19,fp,1
   44a04:	3002891e 	bne	r6,zero,4542c <_dtoa_r+0x1314>
   44a08:	ddc00215 	stw	r23,8(sp)
   44a0c:	05800044 	movi	r22,1
   44a10:	ddc00117 	ldw	r23,4(sp)
   44a14:	dc000415 	stw	r16,16(sp)
   44a18:	a023883a 	mov	r17,r20
   44a1c:	00001c06 	br	44a90 <_dtoa_r+0x978>
   44a20:	b80d883a 	mov	r6,r23
   44a24:	880f883a 	mov	r7,r17
   44a28:	a809883a 	mov	r4,r21
   44a2c:	a00b883a 	mov	r5,r20
   44a30:	004caec0 	call	4caec <__divdf3>
   44a34:	180b883a 	mov	r5,r3
   44a38:	1009883a 	mov	r4,r2
   44a3c:	004e6840 	call	4e684 <__fixdfsi>
   44a40:	1009883a 	mov	r4,r2
   44a44:	1021883a 	mov	r16,r2
   44a48:	004e7040 	call	4e704 <__floatsidf>
   44a4c:	b80d883a 	mov	r6,r23
   44a50:	880f883a 	mov	r7,r17
   44a54:	1009883a 	mov	r4,r2
   44a58:	180b883a 	mov	r5,r3
   44a5c:	004d5bc0 	call	4d5bc <__muldf3>
   44a60:	a809883a 	mov	r4,r21
   44a64:	a00b883a 	mov	r5,r20
   44a68:	100d883a 	mov	r6,r2
   44a6c:	180f883a 	mov	r7,r3
   44a70:	004dc940 	call	4dc94 <__subdf3>
   44a74:	81000c04 	addi	r4,r16,48
   44a78:	99000005 	stb	r4,0(r19)
   44a7c:	b5800044 	addi	r22,r22,1
   44a80:	9cc00044 	addi	r19,r19,1
   44a84:	1009883a 	mov	r4,r2
   44a88:	180b883a 	mov	r5,r3
   44a8c:	b4826426 	beq	r22,r18,45420 <_dtoa_r+0x1308>
   44a90:	000d883a 	mov	r6,zero
   44a94:	01d00934 	movhi	r7,16420
   44a98:	004d5bc0 	call	4d5bc <__muldf3>
   44a9c:	000d883a 	mov	r6,zero
   44aa0:	000f883a 	mov	r7,zero
   44aa4:	1009883a 	mov	r4,r2
   44aa8:	180b883a 	mov	r5,r3
   44aac:	102b883a 	mov	r21,r2
   44ab0:	1829883a 	mov	r20,r3
   44ab4:	004d3340 	call	4d334 <__eqdf2>
   44ab8:	103fd91e 	bne	r2,zero,44a20 <_dtoa_r+0x908>
   44abc:	d8800617 	ldw	r2,24(sp)
   44ac0:	ddc00217 	ldw	r23,8(sp)
   44ac4:	dc000417 	ldw	r16,16(sp)
   44ac8:	15400044 	addi	r21,r2,1
   44acc:	9811883a 	mov	r8,r19
   44ad0:	00009a06 	br	44d3c <_dtoa_r+0xc24>
   44ad4:	0502120e 	bge	zero,r20,45320 <_dtoa_r+0x1208>
   44ad8:	d8000815 	stw	zero,32(sp)
   44adc:	d8000515 	stw	zero,20(sp)
   44ae0:	d8800417 	ldw	r2,16(sp)
   44ae4:	d8c00117 	ldw	r3,4(sp)
   44ae8:	dd800615 	stw	r22,24(sp)
   44aec:	1585883a 	add	r2,r2,r22
   44af0:	d8800415 	stw	r2,16(sp)
   44af4:	d8000315 	stw	zero,12(sp)
   44af8:	188002a8 	cmpgeui	r2,r3,10
   44afc:	103e2f26 	beq	r2,zero,443bc <_dtoa_r+0x2a4>
   44b00:	00800044 	movi	r2,1
   44b04:	04400044 	movi	r17,1
   44b08:	d8000115 	stw	zero,4(sp)
   44b0c:	d8800715 	stw	r2,28(sp)
   44b10:	04bfffc4 	movi	r18,-1
   44b14:	d8001f15 	stw	zero,124(sp)
   44b18:	80001115 	stw	zero,68(r16)
   44b1c:	dc800a15 	stw	r18,40(sp)
   44b20:	000b883a 	mov	r5,zero
   44b24:	003e4606 	br	44440 <_dtoa_r+0x328>
   44b28:	d8c00717 	ldw	r3,28(sp)
   44b2c:	1800b41e 	bne	r3,zero,44e00 <_dtoa_r+0xce8>
   44b30:	dd000317 	ldw	r20,12(sp)
   44b34:	dcc00517 	ldw	r19,20(sp)
   44b38:	d8000715 	stw	zero,28(sp)
   44b3c:	0023883a 	mov	r17,zero
   44b40:	98000b26 	beq	r19,zero,44b70 <_dtoa_r+0xa58>
   44b44:	d8c00417 	ldw	r3,16(sp)
   44b48:	00c0090e 	bge	zero,r3,44b70 <_dtoa_r+0xa58>
   44b4c:	9805883a 	mov	r2,r19
   44b50:	1cc1ab16 	blt	r3,r19,45200 <_dtoa_r+0x10e8>
   44b54:	d8c00517 	ldw	r3,20(sp)
   44b58:	98a7c83a 	sub	r19,r19,r2
   44b5c:	1887c83a 	sub	r3,r3,r2
   44b60:	d8c00515 	stw	r3,20(sp)
   44b64:	d8c00417 	ldw	r3,16(sp)
   44b68:	1885c83a 	sub	r2,r3,r2
   44b6c:	d8800415 	stw	r2,16(sp)
   44b70:	d8800317 	ldw	r2,12(sp)
   44b74:	10000826 	beq	r2,zero,44b98 <_dtoa_r+0xa80>
   44b78:	d8800717 	ldw	r2,28(sp)
   44b7c:	10000126 	beq	r2,zero,44b84 <_dtoa_r+0xa6c>
   44b80:	a0025a1e 	bne	r20,zero,454ec <_dtoa_r+0x13d4>
   44b84:	d9800317 	ldw	r6,12(sp)
   44b88:	b80b883a 	mov	r5,r23
   44b8c:	8009883a 	mov	r4,r16
   44b90:	0047ec00 	call	47ec0 <__pow5mult>
   44b94:	102f883a 	mov	r23,r2
   44b98:	01400044 	movi	r5,1
   44b9c:	8009883a 	mov	r4,r16
   44ba0:	0047bbc0 	call	47bbc <__i2b>
   44ba4:	d8800315 	stw	r2,12(sp)
   44ba8:	b0015a1e 	bne	r22,zero,45114 <_dtoa_r+0xffc>
   44bac:	d8800117 	ldw	r2,4(sp)
   44bb0:	10800090 	cmplti	r2,r2,2
   44bb4:	1001751e 	bne	r2,zero,4518c <_dtoa_r+0x1074>
   44bb8:	00800044 	movi	r2,1
   44bbc:	d9400417 	ldw	r5,16(sp)
   44bc0:	1145883a 	add	r2,r2,r5
   44bc4:	108007cc 	andi	r2,r2,31
   44bc8:	10009826 	beq	r2,zero,44e2c <_dtoa_r+0xd14>
   44bcc:	00c00804 	movi	r3,32
   44bd0:	1887c83a 	sub	r3,r3,r2
   44bd4:	19000150 	cmplti	r4,r3,5
   44bd8:	20017e1e 	bne	r4,zero,451d4 <_dtoa_r+0x10bc>
   44bdc:	00c00704 	movi	r3,28
   44be0:	1885c83a 	sub	r2,r3,r2
   44be4:	d8c00517 	ldw	r3,20(sp)
   44be8:	98a7883a 	add	r19,r19,r2
   44bec:	1887883a 	add	r3,r3,r2
   44bf0:	2885883a 	add	r2,r5,r2
   44bf4:	d8c00515 	stw	r3,20(sp)
   44bf8:	d8800415 	stw	r2,16(sp)
   44bfc:	d8800517 	ldw	r2,20(sp)
   44c00:	0080050e 	bge	zero,r2,44c18 <_dtoa_r+0xb00>
   44c04:	b80b883a 	mov	r5,r23
   44c08:	100d883a 	mov	r6,r2
   44c0c:	8009883a 	mov	r4,r16
   44c10:	00480000 	call	48000 <__lshift>
   44c14:	102f883a 	mov	r23,r2
   44c18:	d8800417 	ldw	r2,16(sp)
   44c1c:	0080050e 	bge	zero,r2,44c34 <_dtoa_r+0xb1c>
   44c20:	d9400317 	ldw	r5,12(sp)
   44c24:	100d883a 	mov	r6,r2
   44c28:	8009883a 	mov	r4,r16
   44c2c:	00480000 	call	48000 <__lshift>
   44c30:	d8800315 	stw	r2,12(sp)
   44c34:	d8800817 	ldw	r2,32(sp)
   44c38:	10004c1e 	bne	r2,zero,44d6c <_dtoa_r+0xc54>
   44c3c:	04811a0e 	bge	zero,r18,450a8 <_dtoa_r+0xf90>
   44c40:	d8800717 	ldw	r2,28(sp)
   44c44:	1000a11e 	bne	r2,zero,44ecc <_dtoa_r+0xdb4>
   44c48:	d8800617 	ldw	r2,24(sp)
   44c4c:	15400044 	addi	r21,r2,1
   44c50:	dd800317 	ldw	r22,12(sp)
   44c54:	04c00044 	movi	r19,1
   44c58:	00000706 	br	44c78 <_dtoa_r+0xb60>
   44c5c:	b80b883a 	mov	r5,r23
   44c60:	000f883a 	mov	r7,zero
   44c64:	01800284 	movi	r6,10
   44c68:	8009883a 	mov	r4,r16
   44c6c:	00478300 	call	47830 <__multadd>
   44c70:	102f883a 	mov	r23,r2
   44c74:	9cc00044 	addi	r19,r19,1
   44c78:	b00b883a 	mov	r5,r22
   44c7c:	b809883a 	mov	r4,r23
   44c80:	0043f1c0 	call	43f1c <quorem>
   44c84:	15000c04 	addi	r20,r2,48
   44c88:	e4c5883a 	add	r2,fp,r19
   44c8c:	153fffc5 	stb	r20,-1(r2)
   44c90:	9cbff216 	blt	r19,r18,44c5c <_dtoa_r+0xb44>
   44c94:	04800116 	blt	zero,r18,44c9c <_dtoa_r+0xb84>
   44c98:	04800044 	movi	r18,1
   44c9c:	e4a5883a 	add	r18,fp,r18
   44ca0:	d8000215 	stw	zero,8(sp)
   44ca4:	b80b883a 	mov	r5,r23
   44ca8:	8009883a 	mov	r4,r16
   44cac:	01800044 	movi	r6,1
   44cb0:	00480000 	call	48000 <__lshift>
   44cb4:	d9400317 	ldw	r5,12(sp)
   44cb8:	1009883a 	mov	r4,r2
   44cbc:	102f883a 	mov	r23,r2
   44cc0:	00481880 	call	48188 <__mcmp>
   44cc4:	00800216 	blt	zero,r2,44cd0 <_dtoa_r+0xbb8>
   44cc8:	00017c06 	br	452bc <_dtoa_r+0x11a4>
   44ccc:	e4819026 	beq	fp,r18,45310 <_dtoa_r+0x11f8>
   44cd0:	90ffffc3 	ldbu	r3,-1(r18)
   44cd4:	9011883a 	mov	r8,r18
   44cd8:	94bfffc4 	addi	r18,r18,-1
   44cdc:	18803fcc 	andi	r2,r3,255
   44ce0:	1080201c 	xori	r2,r2,128
   44ce4:	10bfe004 	addi	r2,r2,-128
   44ce8:	10800e60 	cmpeqi	r2,r2,57
   44cec:	103ff71e 	bne	r2,zero,44ccc <_dtoa_r+0xbb4>
   44cf0:	18c00044 	addi	r3,r3,1
   44cf4:	90c00005 	stb	r3,0(r18)
   44cf8:	d9400317 	ldw	r5,12(sp)
   44cfc:	8009883a 	mov	r4,r16
   44d00:	da000115 	stw	r8,4(sp)
   44d04:	004780c0 	call	4780c <_Bfree>
   44d08:	da000117 	ldw	r8,4(sp)
   44d0c:	88000b26 	beq	r17,zero,44d3c <_dtoa_r+0xc24>
   44d10:	d9400217 	ldw	r5,8(sp)
   44d14:	28000426 	beq	r5,zero,44d28 <_dtoa_r+0xc10>
   44d18:	2c400326 	beq	r5,r17,44d28 <_dtoa_r+0xc10>
   44d1c:	8009883a 	mov	r4,r16
   44d20:	004780c0 	call	4780c <_Bfree>
   44d24:	da000117 	ldw	r8,4(sp)
   44d28:	880b883a 	mov	r5,r17
   44d2c:	8009883a 	mov	r4,r16
   44d30:	da000115 	stw	r8,4(sp)
   44d34:	004780c0 	call	4780c <_Bfree>
   44d38:	da000117 	ldw	r8,4(sp)
   44d3c:	b80b883a 	mov	r5,r23
   44d40:	8009883a 	mov	r4,r16
   44d44:	da000115 	stw	r8,4(sp)
   44d48:	004780c0 	call	4780c <_Bfree>
   44d4c:	da000117 	ldw	r8,4(sp)
   44d50:	d8802017 	ldw	r2,128(sp)
   44d54:	40000005 	stb	zero,0(r8)
   44d58:	15400015 	stw	r21,0(r2)
   44d5c:	d8802217 	ldw	r2,136(sp)
   44d60:	103d1e26 	beq	r2,zero,441dc <_dtoa_r+0xc4>
   44d64:	12000015 	stw	r8,0(r2)
   44d68:	003d1c06 	br	441dc <_dtoa_r+0xc4>
   44d6c:	d9400317 	ldw	r5,12(sp)
   44d70:	b809883a 	mov	r4,r23
   44d74:	00481880 	call	48188 <__mcmp>
   44d78:	103fb00e 	bge	r2,zero,44c3c <_dtoa_r+0xb24>
   44d7c:	b80b883a 	mov	r5,r23
   44d80:	000f883a 	mov	r7,zero
   44d84:	01800284 	movi	r6,10
   44d88:	8009883a 	mov	r4,r16
   44d8c:	00478300 	call	47830 <__multadd>
   44d90:	d8c00617 	ldw	r3,24(sp)
   44d94:	102f883a 	mov	r23,r2
   44d98:	d8800717 	ldw	r2,28(sp)
   44d9c:	1d7fffc4 	addi	r21,r3,-1
   44da0:	1000411e 	bne	r2,zero,44ea8 <_dtoa_r+0xd90>
   44da4:	dc800a17 	ldw	r18,40(sp)
   44da8:	0482940e 	bge	zero,r18,457fc <_dtoa_r+0x16e4>
   44dac:	dd400617 	ldw	r21,24(sp)
   44db0:	003fa706 	br	44c50 <_dtoa_r+0xb38>
   44db4:	00800044 	movi	r2,1
   44db8:	d8800815 	stw	r2,32(sp)
   44dbc:	a0bfffc4 	addi	r2,r20,-1
   44dc0:	103d720e 	bge	r2,zero,4438c <_dtoa_r+0x274>
   44dc4:	00800044 	movi	r2,1
   44dc8:	1505c83a 	sub	r2,r2,r20
   44dcc:	d8800515 	stw	r2,20(sp)
   44dd0:	d8000415 	stw	zero,16(sp)
   44dd4:	003d6e06 	br	44390 <_dtoa_r+0x278>
   44dd8:	b009883a 	mov	r4,r22
   44ddc:	004e7040 	call	4e704 <__floatsidf>
   44de0:	980d883a 	mov	r6,r19
   44de4:	900f883a 	mov	r7,r18
   44de8:	1009883a 	mov	r4,r2
   44dec:	180b883a 	mov	r5,r3
   44df0:	004d3340 	call	4d334 <__eqdf2>
   44df4:	103d5226 	beq	r2,zero,44340 <_dtoa_r+0x228>
   44df8:	b5bfffc4 	addi	r22,r22,-1
   44dfc:	003d5006 	br	44340 <_dtoa_r+0x228>
   44e00:	d8c00117 	ldw	r3,4(sp)
   44e04:	18c00088 	cmpgei	r3,r3,2
   44e08:	18013526 	beq	r3,zero,452e0 <_dtoa_r+0x11c8>
   44e0c:	d8800317 	ldw	r2,12(sp)
   44e10:	953fffc4 	addi	r20,r18,-1
   44e14:	1500fc16 	blt	r2,r20,45208 <_dtoa_r+0x10f0>
   44e18:	1529c83a 	sub	r20,r2,r20
   44e1c:	d8800517 	ldw	r2,20(sp)
   44e20:	9002620e 	bge	r18,zero,457ac <_dtoa_r+0x1694>
   44e24:	14a7c83a 	sub	r19,r2,r18
   44e28:	00010306 	br	45238 <_dtoa_r+0x1120>
   44e2c:	00800704 	movi	r2,28
   44e30:	d8c00517 	ldw	r3,20(sp)
   44e34:	98a7883a 	add	r19,r19,r2
   44e38:	1887883a 	add	r3,r3,r2
   44e3c:	d8c00515 	stw	r3,20(sp)
   44e40:	d8c00417 	ldw	r3,16(sp)
   44e44:	1885883a 	add	r2,r3,r2
   44e48:	d8800415 	stw	r2,16(sp)
   44e4c:	003f6b06 	br	44bfc <_dtoa_r+0xae4>
   44e50:	d8c00117 	ldw	r3,4(sp)
   44e54:	188000e0 	cmpeqi	r2,r3,3
   44e58:	1001151e 	bne	r2,zero,452b0 <_dtoa_r+0x1198>
   44e5c:	18800108 	cmpgei	r2,r3,4
   44e60:	10000226 	beq	r2,zero,44e6c <_dtoa_r+0xd54>
   44e64:	04400044 	movi	r17,1
   44e68:	003d5d06 	br	443e0 <_dtoa_r+0x2c8>
   44e6c:	188000a0 	cmpeqi	r2,r3,2
   44e70:	10028d26 	beq	r2,zero,458a8 <_dtoa_r+0x1790>
   44e74:	04400044 	movi	r17,1
   44e78:	d8000715 	stw	zero,28(sp)
   44e7c:	d8801f17 	ldw	r2,124(sp)
   44e80:	0080be0e 	bge	zero,r2,4517c <_dtoa_r+0x1064>
   44e84:	d8800a15 	stw	r2,40(sp)
   44e88:	1025883a 	mov	r18,r2
   44e8c:	100d883a 	mov	r6,r2
   44e90:	003d6106 	br	44418 <_dtoa_r+0x300>
   44e94:	01000804 	movi	r4,32
   44e98:	2089c83a 	sub	r4,r4,r2
   44e9c:	d8800217 	ldw	r2,8(sp)
   44ea0:	1108983a 	sll	r4,r2,r4
   44ea4:	003cf206 	br	44270 <_dtoa_r+0x158>
   44ea8:	880b883a 	mov	r5,r17
   44eac:	000f883a 	mov	r7,zero
   44eb0:	01800284 	movi	r6,10
   44eb4:	8009883a 	mov	r4,r16
   44eb8:	00478300 	call	47830 <__multadd>
   44ebc:	dc800a17 	ldw	r18,40(sp)
   44ec0:	1023883a 	mov	r17,r2
   44ec4:	04825d0e 	bge	zero,r18,4583c <_dtoa_r+0x1724>
   44ec8:	dd400615 	stw	r21,24(sp)
   44ecc:	04c0c616 	blt	zero,r19,451e8 <_dtoa_r+0x10d0>
   44ed0:	b0016e1e 	bne	r22,zero,4548c <_dtoa_r+0x1374>
   44ed4:	8827883a 	mov	r19,r17
   44ed8:	e0bfffc4 	addi	r2,fp,-1
   44edc:	1485883a 	add	r2,r2,r18
   44ee0:	d8800515 	stw	r2,20(sp)
   44ee4:	d8800217 	ldw	r2,8(sp)
   44ee8:	e02d883a 	mov	r22,fp
   44eec:	df000815 	stw	fp,32(sp)
   44ef0:	1080004c 	andi	r2,r2,1
   44ef4:	d8800715 	stw	r2,28(sp)
   44ef8:	dc800317 	ldw	r18,12(sp)
   44efc:	b809883a 	mov	r4,r23
   44f00:	900b883a 	mov	r5,r18
   44f04:	0043f1c0 	call	43f1c <quorem>
   44f08:	880b883a 	mov	r5,r17
   44f0c:	b809883a 	mov	r4,r23
   44f10:	102b883a 	mov	r21,r2
   44f14:	00481880 	call	48188 <__mcmp>
   44f18:	900b883a 	mov	r5,r18
   44f1c:	980d883a 	mov	r6,r19
   44f20:	8009883a 	mov	r4,r16
   44f24:	1025883a 	mov	r18,r2
   44f28:	00481e00 	call	481e0 <__mdiff>
   44f2c:	100b883a 	mov	r5,r2
   44f30:	10800317 	ldw	r2,12(r2)
   44f34:	af000c04 	addi	fp,r21,48
   44f38:	1000261e 	bne	r2,zero,44fd4 <_dtoa_r+0xebc>
   44f3c:	b809883a 	mov	r4,r23
   44f40:	d9400415 	stw	r5,16(sp)
   44f44:	00481880 	call	48188 <__mcmp>
   44f48:	d9400417 	ldw	r5,16(sp)
   44f4c:	1029883a 	mov	r20,r2
   44f50:	8009883a 	mov	r4,r16
   44f54:	004780c0 	call	4780c <_Bfree>
   44f58:	a000401e 	bne	r20,zero,4505c <_dtoa_r+0xf44>
   44f5c:	d8800117 	ldw	r2,4(sp)
   44f60:	1000021e 	bne	r2,zero,44f6c <_dtoa_r+0xe54>
   44f64:	d8800717 	ldw	r2,28(sp)
   44f68:	1000cb26 	beq	r2,zero,45298 <_dtoa_r+0x1180>
   44f6c:	90020816 	blt	r18,zero,45790 <_dtoa_r+0x1678>
   44f70:	d8800517 	ldw	r2,20(sp)
   44f74:	b7000005 	stb	fp,0(r22)
   44f78:	b4800044 	addi	r18,r22,1
   44f7c:	15815426 	beq	r2,r22,454d0 <_dtoa_r+0x13b8>
   44f80:	b80b883a 	mov	r5,r23
   44f84:	000f883a 	mov	r7,zero
   44f88:	01800284 	movi	r6,10
   44f8c:	8009883a 	mov	r4,r16
   44f90:	00478300 	call	47830 <__multadd>
   44f94:	102f883a 	mov	r23,r2
   44f98:	880b883a 	mov	r5,r17
   44f9c:	000f883a 	mov	r7,zero
   44fa0:	01800284 	movi	r6,10
   44fa4:	8009883a 	mov	r4,r16
   44fa8:	8cc02826 	beq	r17,r19,4504c <_dtoa_r+0xf34>
   44fac:	00478300 	call	47830 <__multadd>
   44fb0:	980b883a 	mov	r5,r19
   44fb4:	000f883a 	mov	r7,zero
   44fb8:	01800284 	movi	r6,10
   44fbc:	8009883a 	mov	r4,r16
   44fc0:	1023883a 	mov	r17,r2
   44fc4:	00478300 	call	47830 <__multadd>
   44fc8:	1027883a 	mov	r19,r2
   44fcc:	902d883a 	mov	r22,r18
   44fd0:	003fc906 	br	44ef8 <_dtoa_r+0xde0>
   44fd4:	8009883a 	mov	r4,r16
   44fd8:	e029883a 	mov	r20,fp
   44fdc:	df000817 	ldw	fp,32(sp)
   44fe0:	004780c0 	call	4780c <_Bfree>
   44fe4:	90000616 	blt	r18,zero,45000 <_dtoa_r+0xee8>
   44fe8:	d8800217 	ldw	r2,8(sp)
   44fec:	d8c00117 	ldw	r3,4(sp)
   44ff0:	1080004c 	andi	r2,r2,1
   44ff4:	1ca4b03a 	or	r18,r3,r18
   44ff8:	1484b03a 	or	r2,r2,r18
   44ffc:	1000201e 	bne	r2,zero,45080 <_dtoa_r+0xf68>
   45000:	b80b883a 	mov	r5,r23
   45004:	8009883a 	mov	r4,r16
   45008:	01800044 	movi	r6,1
   4500c:	00480000 	call	48000 <__lshift>
   45010:	d9400317 	ldw	r5,12(sp)
   45014:	1009883a 	mov	r4,r2
   45018:	102f883a 	mov	r23,r2
   4501c:	00481880 	call	48188 <__mcmp>
   45020:	0080990e 	bge	zero,r2,45288 <_dtoa_r+0x1170>
   45024:	a0c00e60 	cmpeqi	r3,r20,57
   45028:	1801ce1e 	bne	r3,zero,45764 <_dtoa_r+0x164c>
   4502c:	ad000c44 	addi	r20,r21,49
   45030:	d8800617 	ldw	r2,24(sp)
   45034:	dc400215 	stw	r17,8(sp)
   45038:	b2000044 	addi	r8,r22,1
   4503c:	b5000005 	stb	r20,0(r22)
   45040:	15400044 	addi	r21,r2,1
   45044:	9823883a 	mov	r17,r19
   45048:	003f2b06 	br	44cf8 <_dtoa_r+0xbe0>
   4504c:	00478300 	call	47830 <__multadd>
   45050:	1023883a 	mov	r17,r2
   45054:	1027883a 	mov	r19,r2
   45058:	003fdc06 	br	44fcc <_dtoa_r+0xeb4>
   4505c:	90022316 	blt	r18,zero,458ec <_dtoa_r+0x17d4>
   45060:	d8800117 	ldw	r2,4(sp)
   45064:	14a4b03a 	or	r18,r2,r18
   45068:	d8800717 	ldw	r2,28(sp)
   4506c:	14a4b03a 	or	r18,r2,r18
   45070:	90021e26 	beq	r18,zero,458ec <_dtoa_r+0x17d4>
   45074:	053fbe0e 	bge	zero,r20,44f70 <_dtoa_r+0xe58>
   45078:	e029883a 	mov	r20,fp
   4507c:	df000817 	ldw	fp,32(sp)
   45080:	a0800e60 	cmpeqi	r2,r20,57
   45084:	1001b71e 	bne	r2,zero,45764 <_dtoa_r+0x164c>
   45088:	d8800617 	ldw	r2,24(sp)
   4508c:	a0c00044 	addi	r3,r20,1
   45090:	dc400215 	stw	r17,8(sp)
   45094:	b2000044 	addi	r8,r22,1
   45098:	15400044 	addi	r21,r2,1
   4509c:	b0c00005 	stb	r3,0(r22)
   450a0:	9823883a 	mov	r17,r19
   450a4:	003f1406 	br	44cf8 <_dtoa_r+0xbe0>
   450a8:	d8800117 	ldw	r2,4(sp)
   450ac:	108000d0 	cmplti	r2,r2,3
   450b0:	103ee31e 	bne	r2,zero,44c40 <_dtoa_r+0xb28>
   450b4:	9000d81e 	bne	r18,zero,45418 <_dtoa_r+0x1300>
   450b8:	d9400317 	ldw	r5,12(sp)
   450bc:	8009883a 	mov	r4,r16
   450c0:	000f883a 	mov	r7,zero
   450c4:	01800144 	movi	r6,5
   450c8:	00478300 	call	47830 <__multadd>
   450cc:	100b883a 	mov	r5,r2
   450d0:	b809883a 	mov	r4,r23
   450d4:	d8800315 	stw	r2,12(sp)
   450d8:	00481880 	call	48188 <__mcmp>
   450dc:	0080ce0e 	bge	zero,r2,45418 <_dtoa_r+0x1300>
   450e0:	00800c44 	movi	r2,49
   450e4:	e0800005 	stb	r2,0(fp)
   450e8:	d8800617 	ldw	r2,24(sp)
   450ec:	e2000044 	addi	r8,fp,1
   450f0:	14800044 	addi	r18,r2,1
   450f4:	d9400317 	ldw	r5,12(sp)
   450f8:	8009883a 	mov	r4,r16
   450fc:	da000115 	stw	r8,4(sp)
   45100:	004780c0 	call	4780c <_Bfree>
   45104:	da000117 	ldw	r8,4(sp)
   45108:	95400044 	addi	r21,r18,1
   4510c:	883f061e 	bne	r17,zero,44d28 <_dtoa_r+0xc10>
   45110:	003f0a06 	br	44d3c <_dtoa_r+0xc24>
   45114:	100b883a 	mov	r5,r2
   45118:	b00d883a 	mov	r6,r22
   4511c:	8009883a 	mov	r4,r16
   45120:	0047ec00 	call	47ec0 <__pow5mult>
   45124:	d8c00117 	ldw	r3,4(sp)
   45128:	d8800315 	stw	r2,12(sp)
   4512c:	18c00090 	cmplti	r3,r3,2
   45130:	1800461e 	bne	r3,zero,4524c <_dtoa_r+0x1134>
   45134:	002d883a 	mov	r22,zero
   45138:	d8c00317 	ldw	r3,12(sp)
   4513c:	18800417 	ldw	r2,16(r3)
   45140:	10800104 	addi	r2,r2,4
   45144:	100490ba 	slli	r2,r2,2
   45148:	1885883a 	add	r2,r3,r2
   4514c:	11000017 	ldw	r4,0(r2)
   45150:	0047a980 	call	47a98 <__hi0bits>
   45154:	00c00804 	movi	r3,32
   45158:	1885c83a 	sub	r2,r3,r2
   4515c:	003e9706 	br	44bbc <_dtoa_r+0xaa4>
   45160:	00800174 	movhi	r2,5
   45164:	e7051004 	addi	fp,fp,5184
   45168:	108510c4 	addi	r2,r2,5187
   4516c:	003db106 	br	44834 <_dtoa_r+0x71c>
   45170:	00800044 	movi	r2,1
   45174:	d8800715 	stw	r2,28(sp)
   45178:	003f4006 	br	44e7c <_dtoa_r+0xd64>
   4517c:	00800044 	movi	r2,1
   45180:	04800044 	movi	r18,1
   45184:	d8801f15 	stw	r2,124(sp)
   45188:	003e6306 	br	44b18 <_dtoa_r+0xa00>
   4518c:	d8800217 	ldw	r2,8(sp)
   45190:	103e891e 	bne	r2,zero,44bb8 <_dtoa_r+0xaa0>
   45194:	00800434 	movhi	r2,16
   45198:	10bfffc4 	addi	r2,r2,-1
   4519c:	a884703a 	and	r2,r21,r2
   451a0:	103e851e 	bne	r2,zero,44bb8 <_dtoa_r+0xaa0>
   451a4:	a89ffc2c 	andhi	r2,r21,32752
   451a8:	10017c26 	beq	r2,zero,4579c <_dtoa_r+0x1684>
   451ac:	d8800517 	ldw	r2,20(sp)
   451b0:	10800044 	addi	r2,r2,1
   451b4:	d8800515 	stw	r2,20(sp)
   451b8:	d8800417 	ldw	r2,16(sp)
   451bc:	10800044 	addi	r2,r2,1
   451c0:	d8800415 	stw	r2,16(sp)
   451c4:	00800044 	movi	r2,1
   451c8:	b001761e 	bne	r22,zero,457a4 <_dtoa_r+0x168c>
   451cc:	102d883a 	mov	r22,r2
   451d0:	003e7906 	br	44bb8 <_dtoa_r+0xaa0>
   451d4:	18c00120 	cmpeqi	r3,r3,4
   451d8:	183e881e 	bne	r3,zero,44bfc <_dtoa_r+0xae4>
   451dc:	00c00f04 	movi	r3,60
   451e0:	1885c83a 	sub	r2,r3,r2
   451e4:	003f1206 	br	44e30 <_dtoa_r+0xd18>
   451e8:	880b883a 	mov	r5,r17
   451ec:	980d883a 	mov	r6,r19
   451f0:	8009883a 	mov	r4,r16
   451f4:	00480000 	call	48000 <__lshift>
   451f8:	1023883a 	mov	r17,r2
   451fc:	003f3406 	br	44ed0 <_dtoa_r+0xdb8>
   45200:	1805883a 	mov	r2,r3
   45204:	003e5306 	br	44b54 <_dtoa_r+0xa3c>
   45208:	d8800317 	ldw	r2,12(sp)
   4520c:	d8c00517 	ldw	r3,20(sp)
   45210:	dd000315 	stw	r20,12(sp)
   45214:	a085c83a 	sub	r2,r20,r2
   45218:	b0ad883a 	add	r22,r22,r2
   4521c:	d8800417 	ldw	r2,16(sp)
   45220:	1827883a 	mov	r19,r3
   45224:	0029883a 	mov	r20,zero
   45228:	1485883a 	add	r2,r2,r18
   4522c:	d8800415 	stw	r2,16(sp)
